"File: chaosTest0731.c  Assembler  Version HGASM0202      Page 1


   1  0000              ; Generated by holtek-gcc v3.18, Mon Sep 10 19:23:49 2018
   2  0000              ; 
   3  0000              ; Configuration:
   4  0000              ;       with long instruction
   5  0000              ;       Multi-ROM, Multi-RAM
   6  0000              ;       bits_per_rom_unit:16
   7  0000              ;       with mp1
   8  0000              ;       with tbhp, address(0x9)
   9  0000              ;          Use tabrd-const
  10  0000              ;       
  11  0000              ; SFR address of long-instruction arch:
  12  0000              ;    mp0 = -1,1,0
  13  0000              ;    mp1 = 4,3,2
  14  0000              ;    mp2 = 14,13,12
  15  0000              ;    tbp = 9,7,8
  16  0000              ;    acc = 5
  17  0000              ;    pcl = 6
  18  0000              ;    status = 10
  19  0000              ;    bp = 11
  20  0000              ;    intc = 48
  21  0000              ;       
  22  0000              ;       
  23  0000              ; use 'tabrdc' instead of 'tabrd'
  24  0000              ;       
  25  0000              
  26  0000              #pragma translator "holtek-gcc 4.6.4" "3.18" "build 20130711"
  27  0000              ; Rebuild 521
  28  0000              
  29  0000              ir equ [2]
  30  0000              mp equ [3]
  31  0000              sbp equ [4]
  32  0000              acc equ [5]
  33  0000              bp equ [11]
  34  0000              tblp equ [7]
  35  0000              tbhp equ [9]
  36  0000              status equ [10]
  37  0000              c equ [10].0
  38  0000              ac equ [10].1
  39  0000              z equ [10].2
  40  0000              ov equ [10].3
  41  0000              cz equ [10].6
  42  0000              sc equ [10].7
  43  0000              intc equ [48]
  44  0000              
  45  0000              extern ra:byte
  46  0000              extern rb:byte
  47  0000              extern rc:byte
  48  0000              extern rd:byte
  49  0000              extern re:byte
  50  0000              extern rf:byte
  51  0000              extern rg:byte
  52  0000              extern rh:byte
  53  0000              extern _Crom2Prom:near
  54  0000              extern _Crom2PromNext:near
  55  0000              
  56  0000              RAMBANK 0 @BITDATASEC, @BITDATASEC1
  57  0000              @HCCINIT	.section 'data'
  58  0000              @HCCINIT0	.section 'data'
  59  0000              @BITDATASEC	 .section 'data'
"File: chaosTest0731.ASM  Assembler  Version HGASM0202      Page 2

  60  0000              @BITDATASEC1	 .section 'data'
  61  0000              
  62  0000              #pragma debug scope 1 1
  63  0000              	extern __DELAY3:near
  64  0000              	extern __DELAYX3:near
  65  0000              	extern __DELAYX6:near
  66  0000              	extern __DELAYY5:near
  67  0000              	extern __DELAYY3:near
  68  0000              	extern _builtin_holtek_delay_2:byte
  69  0000              ___tm0al equ [98]
  70  0000              ___tm0ah equ [99]
  71  0000              ___tm0c0 equ [94]
  72  0000              ___mfi0 equ [52]
  73  0000              ___pa equ [18]
  74  0000              ___intc0 equ [48]
  75  0000              public _ISR_ExtINT0
  76  0000              #pragma debug scope 2 1

 187  0000              #line 187 "C:\Users\user1801\Desktop\HOLTEK\1070706\chaosTest0731\chaosTest0731.c"
 187  0000              rombank 0 @ISR_ExtINT0_code
 187  0000              @ISR_ExtINT0_code .section at 4 'code'
 187  0000  0080     E  	mov r1,a
 187  0001  070B        	mov a,bp
 187  0002  1F0B        	clr bp
 187  0003  2800     R  	jmp _ISR_ExtINT0
 187  0004              ROMBANK 0 _ISR_ExtINT0
 187  0004              #pragma debug scope 1 1
 187  0004              @dummy4 endp
 187  0004              #pragma debug scope 3 1
 187  0000              _ISR_ExtINT0 .section 'code'
 187  0000              _ISR_ExtINT0 proc
 187  0000  0080     E  	mov r2,a
 187  0001  070A        	mov a, status
 187  0002  0080     E  	mov r3,a
 188  0003              #line 188 "C:\Users\user1801\Desktop\HOLTEK\1070706\chaosTest0731\chaosTest0731.c"
 188  0003  0FA0        	mov a,160
 188  0004  00E2        	mov [98],a
 188  0005  0F01        	mov a,1
 188  0006  00E3        	mov [99],a
 189  0007              #line 189 "C:\Users\user1801\Desktop\HOLTEK\1070706\chaosTest0731\chaosTest0731.c"
 189  0007  31DE        	set [94].3
 190  0008              #line 190 "C:\Users\user1801\Desktop\HOLTEK\1070706\chaosTest0731\chaosTest0731.c"
 190  0008  36B4        	clr [52].5
 191  0009              #line 191 "C:\Users\user1801\Desktop\HOLTEK\1070706\chaosTest0731\chaosTest0731.c"
 191  0009  1F00     R  	clr _RxData[0]
 191  000A              _L3:
 192  000A              #line 192 "C:\Users\user1801\Desktop\HOLTEK\1070706\chaosTest0731\chaosTest0731.c"
 192  000A  3AB4        	snz [52].5
 192  000B  2800     R  	jmp _L3
 193  000C              #line 193 "C:\Users\user1801\Desktop\HOLTEK\1070706\chaosTest0731\chaosTest0731.c"
 193  000C  0F41        	mov a,65
 193  000D  00E2        	mov [98],a
 193  000E  0F03        	mov a,3
 193  000F  00E3        	mov [99],a
 194  0010              #line 194 "C:\Users\user1801\Desktop\HOLTEK\1070706\chaosTest0731\chaosTest0731.c"
 194  0010  36B4        	clr [52].5
 194  0011  1F00     E  	clr rb
 187  0012              #line 187 "C:\Users\user1801\Desktop\HOLTEK\1070706\chaosTest0731\chaosTest0731.c"
 187  0012  0F01        	mov a,1
 187  0013  0080     E  	mov ra,a
"File: chaosTest0731.c  Assembler  Version HGASM0202      Page 3

 187  0014              _L5:
 196  0014              #line 196 "C:\Users\user1801\Desktop\HOLTEK\1070706\chaosTest0731\chaosTest0731.c"
 196  0014  3AB4        	snz [52].5
 196  0015  2800     R  	jmp _L5
 197  0016              #line 197 "C:\Users\user1801\Desktop\HOLTEK\1070706\chaosTest0731\chaosTest0731.c"
 197  0016  36B4        	clr [52].5
 198  0017              #line 198 "C:\Users\user1801\Desktop\HOLTEK\1070706\chaosTest0731\chaosTest0731.c"
 198  0017  3992        	snz [18].3
 198  0018  2800     R  	jmp _L6
 198  0019  0700     E  	mov a,ra
 198  001A  0580     R  	orm a,_RxData[0]
 198  001B              _L6:
 199  001B              #line 199 "C:\Users\user1801\Desktop\HOLTEK\1070706\chaosTest0731\chaosTest0731.c"
 199  001B  0700     E  	mov a,ra
 199  001C  0380     E  	addm a,ra
 199  001D  1480     E  	inc rb
 200  001E              #line 200 "C:\Users\user1801\Desktop\HOLTEK\1070706\chaosTest0731\chaosTest0731.c"
 200  001E  0700     E  	mov a,rb
 200  001F  0A08        	sub a,8
 200  0020  390A        	snz z
 200  0021  2800     R  	jmp _L5
 201  0022              #line 201 "C:\Users\user1801\Desktop\HOLTEK\1070706\chaosTest0731\chaosTest0731.c"
 201  0022  0F01        	mov a,1
 201  0023  0080     R  	mov _b_RX[0],a
 201  0024              _L10:
 202  0024              #line 202 "C:\Users\user1801\Desktop\HOLTEK\1070706\chaosTest0731\chaosTest0731.c"
 202  0024  3AB4        	snz [52].5
 202  0025  2800     R  	jmp _L10
 203  0026              #line 203 "C:\Users\user1801\Desktop\HOLTEK\1070706\chaosTest0731\chaosTest0731.c"
 203  0026  35DE        	clr [94].3
 204  0027              #line 204 "C:\Users\user1801\Desktop\HOLTEK\1070706\chaosTest0731\chaosTest0731.c"
 204  0027  3630        	clr [48].4
 204  0028  0700     E  	mov a,r2
 204  0029  008B        	mov bp,a
 204  002A  0700     E  	mov a,r3
 204  002B  008A        	mov status,a
 204  002C  0700     E  	mov a,r1
 204  002D  0004        	reti
 204  002E              _ISR_ExtINT0 endp
 204  002E              
 204  002E              #line 204 "C:\Users\user1801\Desktop\HOLTEK\1070706\chaosTest0731\chaosTest0731.c"
 204  002E              #pragma debug scope 1 1
 204  002E              public _UARTTxData
 204  002E              #pragma debug scope 4 1
 207  002E              #line 207 "C:\Users\user1801\Desktop\HOLTEK\1070706\chaosTest0731\chaosTest0731.c"
 207  0000              _UARTTxData .section 'code'
 207  0000              _UARTTxData proc
 207  0000  00              local _UARTTxData_2 db 1 dup(?)	; 0,1
 207  0000  0080     R  	mov _UARTTxData_2[0],a
 207  0001              #pragma debug variable 8 4 _UARTTxData_2+0 "data"
 208  0001              #line 208 "C:\Users\user1801\Desktop\HOLTEK\1070706\chaosTest0731\chaosTest0731.c"
 208  0001  0F41        	mov a,65
 208  0002  00E2        	mov [98],a
 208  0003  0F03        	mov a,3
 208  0004  00E3        	mov [99],a
 209  0005              #line 209 "C:\Users\user1801\Desktop\HOLTEK\1070706\chaosTest0731\chaosTest0731.c"
 209  0005  3492        	clr [18].1
 210  0006              #line 210 "C:\Users\user1801\Desktop\HOLTEK\1070706\chaosTest0731\chaosTest0731.c"
 210  0006  31DE        	set [94].3
 211  0007              #line 211 "C:\Users\user1801\Desktop\HOLTEK\1070706\chaosTest0731\chaosTest0731.c"
"File: chaosTest0731.c  Assembler  Version HGASM0202      Page 4

 211  0007  36B4        	clr [52].5
 211  0008              _L17:
 212  0008              #line 212 "C:\Users\user1801\Desktop\HOLTEK\1070706\chaosTest0731\chaosTest0731.c"
 212  0008  3AB4        	snz [52].5
 212  0009  2800     R  	jmp _L17
 213  000A              #line 213 "C:\Users\user1801\Desktop\HOLTEK\1070706\chaosTest0731\chaosTest0731.c"
 213  000A  36B4        	clr [52].5
 213  000B  1F00     E  	clr rb
 207  000C              #line 207 "C:\Users\user1801\Desktop\HOLTEK\1070706\chaosTest0731\chaosTest0731.c"
 207  000C  0F01        	mov a,1
 207  000D  0080     E  	mov ra,a
 207  000E              _L21:
 215  000E              #line 215 "C:\Users\user1801\Desktop\HOLTEK\1070706\chaosTest0731\chaosTest0731.c"
 215  000E  0700     E  	mov a,ra
 215  000F  0600     R  	and a,_UARTTxData_2[0]
 215  0010  0080     E  	mov rc,a
 215  0011  0F00        	mov a,0
 215  0012  0200     E  	sub a,rc
 215  0013  0080     E  	mov rd,a
 215  0014  0700     E  	mov a,rd
 215  0015  0580     E  	orm a,rc
 215  0016  1A80     E  	rlc rc
 215  0017  1F00     E  	clr rc
 215  0018  1A80     E  	rlc rc
 215  0019  0700     E  	mov a,rc
 215  001A  0380     E  	addm a,rc
 215  001B  3492        	clr [18].1
 215  001C  0700     E  	mov a,rc
 215  001D  0592        	orm a,[18]
 215  001E              _L19:
 216  001E              #line 216 "C:\Users\user1801\Desktop\HOLTEK\1070706\chaosTest0731\chaosTest0731.c"
 216  001E  3AB4        	snz [52].5
 216  001F  2800     R  	jmp _L19
 217  0020              #line 217 "C:\Users\user1801\Desktop\HOLTEK\1070706\chaosTest0731\chaosTest0731.c"
 217  0020  36B4        	clr [52].5
 218  0021              #line 218 "C:\Users\user1801\Desktop\HOLTEK\1070706\chaosTest0731\chaosTest0731.c"
 218  0021  0700     E  	mov a,ra
 218  0022  0380     E  	addm a,ra
 218  0023  1480     E  	inc rb
 219  0024              #line 219 "C:\Users\user1801\Desktop\HOLTEK\1070706\chaosTest0731\chaosTest0731.c"
 219  0024  0700     E  	mov a,rb
 219  0025  0A08        	sub a,8
 219  0026  390A        	snz z
 219  0027  2800     R  	jmp _L21
 220  0028              #line 220 "C:\Users\user1801\Desktop\HOLTEK\1070706\chaosTest0731\chaosTest0731.c"
 220  0028  3092        	set [18].1
 220  0029              _L23:
 221  0029              #line 221 "C:\Users\user1801\Desktop\HOLTEK\1070706\chaosTest0731\chaosTest0731.c"
 221  0029  3AB4        	snz [52].5
 221  002A  2800     R  	jmp _L23
 222  002B              #line 222 "C:\Users\user1801\Desktop\HOLTEK\1070706\chaosTest0731\chaosTest0731.c"
 222  002B  35DE        	clr [94].3
 222  002C  0003        	ret
 222  002D              _UARTTxData endp
 222  002D              #line 222 "C:\Users\user1801\Desktop\HOLTEK\1070706\chaosTest0731\chaosTest0731.c"
 222  002D              #pragma debug scope 1 1
 222  002D              ___pgc equ [43]
 222  002D              ___pgpu equ [41]
 222  002D              ___pg equ [42]
 222  002D              public _ScanKey
"File: chaosTest0731.c  Assembler  Version HGASM0202      Page 5

 222  002D              #pragma debug scope 5 1
 224  002D              #line 224 "C:\Users\user1801\Desktop\HOLTEK\1070706\chaosTest0731\chaosTest0731.c"
 224  0000              _ScanKey .section 'code'
 224  0000              _ScanKey proc
 226  0000              #line 226 "C:\Users\user1801\Desktop\HOLTEK\1070706\chaosTest0731\chaosTest0731.c"
 226  0000  0FF0        	mov a,240
 226  0001  00AB        	mov [43],a
 226  0002  0FF0        	mov a,240
 226  0003  00A9        	mov [41],a
 227  0004              #line 227 "C:\Users\user1801\Desktop\HOLTEK\1070706\chaosTest0731\chaosTest0731.c"
 227  0004  0FFE        	mov a,254
 227  0005  00AA        	mov [42],a
 225  0006              #line 225 "C:\Users\user1801\Desktop\HOLTEK\1070706\chaosTest0731\chaosTest0731.c"
 225  0006  1F00     E  	clr ra
 225  0007              _L29:
 229  0007              #line 229 "C:\Users\user1801\Desktop\HOLTEK\1070706\chaosTest0731\chaosTest0731.c"
 229  0007  3A2A        	snz [42].4
 229  0008  2800     R  	jmp _L25
 231  0009              #line 231 "C:\Users\user1801\Desktop\HOLTEK\1070706\chaosTest0731\chaosTest0731.c"
 231  0009  3EAA        	sz [42].5
 231  000A  2800     R  	jmp _L26
 230  000B              #line 230 "C:\Users\user1801\Desktop\HOLTEK\1070706\chaosTest0731\chaosTest0731.c"
 230  000B  1480     E  	inc ra
 230  000C  2800     R  	jmp _L25
 230  000D              _L26:
 233  000D              #line 233 "C:\Users\user1801\Desktop\HOLTEK\1070706\chaosTest0731\chaosTest0731.c"
 233  000D  3F2A        	sz [42].6
 233  000E  2800     R  	jmp _L27
 232  000F              #line 232 "C:\Users\user1801\Desktop\HOLTEK\1070706\chaosTest0731\chaosTest0731.c"
 232  000F  0F02        	mov a,2
 232  0010  0380     E  	addm a,ra
 232  0011  2800     R  	jmp _L25
 232  0012              _L27:
 235  0012              #line 235 "C:\Users\user1801\Desktop\HOLTEK\1070706\chaosTest0731\chaosTest0731.c"
 235  0012  3FAA        	sz [42].7
 235  0013  2800     R  	jmp _L28
 234  0014              #line 234 "C:\Users\user1801\Desktop\HOLTEK\1070706\chaosTest0731\chaosTest0731.c"
 234  0014  0F03        	mov a,3
 234  0015  0380     E  	addm a,ra
 234  0016  2800     R  	jmp _L25
 234  0017              _L28:
 236  0017              #line 236 "C:\Users\user1801\Desktop\HOLTEK\1070706\chaosTest0731\chaosTest0731.c"
 236  0017  0F04        	mov a,4
 236  0018  0380     E  	addm a,ra
 237  0019              #line 237 "C:\Users\user1801\Desktop\HOLTEK\1070706\chaosTest0731\chaosTest0731.c"
 237  0019  072A        	mov a,[42]
 237  001A  03AA        	addm a,[42]
 237  001B  302A        	set [42].0
 228  001C              #line 228 "C:\Users\user1801\Desktop\HOLTEK\1070706\chaosTest0731\chaosTest0731.c"
 228  001C  0700     E  	mov a,ra
 228  001D  0A0C        	sub a,12
 228  001E  390A        	snz z
 228  001F  2800     R  	jmp _L29
 228  0020              _L25:
 240  0020              #line 240 "C:\Users\user1801\Desktop\HOLTEK\1070706\chaosTest0731\chaosTest0731.c"
 240  0020  0700     E  	mov a,ra
 240  0021  0003        	ret
 240  0022              _ScanKey endp
 240  0022              #line 240 "C:\Users\user1801\Desktop\HOLTEK\1070706\chaosTest0731\chaosTest0731.c"
 240  0022              #pragma debug scope 1 1
"File: chaosTest0731.c  Assembler  Version HGASM0202      Page 6

 240  0022              public _delay
 240  0022              #pragma debug scope 6 1
 241  0022              #line 241 "C:\Users\user1801\Desktop\HOLTEK\1070706\chaosTest0731\chaosTest0731.c"
 241  0000              _delay .section 'code'
 241  0000              _delay proc
 241  0000              public _delay_2
 241  0000  0002[           local _delay_2 db 2 dup(?)	; 2,0
            00
            ]
 241  0002              #pragma debug variable 10 6 _delay_2+0 "del"
 243  0002              #line 243 "C:\Users\user1801\Desktop\HOLTEK\1070706\chaosTest0731\chaosTest0731.c"
 243  0000  1F00     E  	clr rb
 243  0001  1F00     E  	clr rc
 243  0002  2800     R  	jmp _L37
 243  0003              _L38:
 243  0003              #line 243 "C:\Users\user1801\Desktop\HOLTEK\1070706\chaosTest0731\chaosTest0731.c"
 243  0003              ;# 243 "C:\Users\user1801\Desktop\HOLTEK\1070706\chaosTest0731\chaosTest0731.c" 1
 243  0003              	IF 2000>263690
 243  0003              ;# 243 "C:\Users\user1801\Desktop\HOLTEK\1070706\chaosTest0731\chaosTest0731.c" 1
 243  0003              	ERRMESSAGE 'the value 2000of the argument exceeds the maxinum 263690'
 243  0003              	ENDIF
 243  0003              ;# 243 "C:\Users\user1801\Desktop\HOLTEK\1070706\chaosTest0731\chaosTest0731.c" 1
 243  0003              	IF 2000<0
 243  0003              ;# 243 "C:\Users\user1801\Desktop\HOLTEK\1070706\chaosTest0731\chaosTest0731.c" 1
 243  0003              	ERRMESSAGE 'the value 2000 of the argument exceeds the mininum 0'
 243  0003              	ENDIF
 243  0003              ;# 243 "C:\Users\user1801\Desktop\HOLTEK\1070706\chaosTest0731\chaosTest0731.c" 1
 243  0003              	IF 2000==0
 243  0003              ;# 243 "C:\Users\user1801\Desktop\HOLTEK\1070706\chaosTest0731\chaosTest0731.c" 1
 243  0003              	JMP $
 243  0003              	ENDIF
 243  0003              ;# 243 "C:\Users\user1801\Desktop\HOLTEK\1070706\chaosTest0731\chaosTest0731.c" 1
 243  0003              	IF (2000>=1) AND (2000<( 4 + __PBP__ * 2))
 243  0003              ;# 243 "C:\Users\user1801\Desktop\HOLTEK\1070706\chaosTest0731\chaosTest0731.c" 1
 243  0003              	NOP
 243  0003              	ENDIF
 243  0003              ;# 243 "C:\Users\user1801\Desktop\HOLTEK\1070706\chaosTest0731\chaosTest0731.c" 1
 243  0003              	IF (2000>=2) AND (2000<( 4 + __PBP__ * 2))
 243  0003              ;# 243 "C:\Users\user1801\Desktop\HOLTEK\1070706\chaosTest0731\chaosTest0731.c" 1
 243  0003              	NOP
 243  0003              	ENDIF
 243  0003              ;# 243 "C:\Users\user1801\Desktop\HOLTEK\1070706\chaosTest0731\chaosTest0731.c" 1
 243  0003              	IF (2000>=3) AND (2000<( 4 + __PBP__ * 2))
 243  0003              ;# 243 "C:\Users\user1801\Desktop\HOLTEK\1070706\chaosTest0731\chaosTest0731.c" 1
 243  0003              	NOP
 243  0003              	ENDIF
 243  0003              ;# 243 "C:\Users\user1801\Desktop\HOLTEK\1070706\chaosTest0731\chaosTest0731.c" 1
 243  0003              	IF (2000>=4) AND (2000<( 4 + __PBP__ * 2)) AND ( __PBP__ > 0 )
 243  0003              ;# 243 "C:\Users\user1801\Desktop\HOLTEK\1070706\chaosTest0731\chaosTest0731.c" 1
 243  0003              	NOP
 243  0003              	ENDIF
 243  0003              ;# 243 "C:\Users\user1801\Desktop\HOLTEK\1070706\chaosTest0731\chaosTest0731.c" 1
 243  0003              	IF (2000>=5) AND (2000<( 4 + __PBP__ * 2)) AND ( __PBP__ > 0 )
 243  0003              ;# 243 "C:\Users\user1801\Desktop\HOLTEK\1070706\chaosTest0731\chaosTest0731.c" 1
 243  0003              	NOP
 243  0003              	ENDIF
 243  0003              ;# 243 "C:\Users\user1801\Desktop\HOLTEK\1070706\chaosTest0731\chaosTest0731.c" 1
 243  0003              	IF (2000>=6) AND (2000<( 4 + __PBP__ * 2))  AND ( __PBP__ > 1 )
 243  0003              ;# 243 "C:\Users\user1801\Desktop\HOLTEK\1070706\chaosTest0731\chaosTest0731.c" 1
 243  0003              	NOP
"File: chaosTest0731.c  Assembler  Version HGASM0202      Page 7

 243  0003              	ENDIF
 243  0003              ;# 243 "C:\Users\user1801\Desktop\HOLTEK\1070706\chaosTest0731\chaosTest0731.c" 1
 243  0003              	IF (2000>=7) AND (2000<( 4 + __PBP__ * 2))  AND ( __PBP__ > 1 )
 243  0003              ;# 243 "C:\Users\user1801\Desktop\HOLTEK\1070706\chaosTest0731\chaosTest0731.c" 1
 243  0003              	NOP
 243  0003              	ENDIF
 243  0003              ;# 243 "C:\Users\user1801\Desktop\HOLTEK\1070706\chaosTest0731\chaosTest0731.c" 1
 243  0003              	IF (2000>=8) AND (2000<( 4 + __PBP__ * 2))  AND ( __PBP__ > 2 )
 243  0003              ;# 243 "C:\Users\user1801\Desktop\HOLTEK\1070706\chaosTest0731\chaosTest0731.c" 1
 243  0003              	NOP
 243  0003              	ENDIF
 243  0003              ;# 243 "C:\Users\user1801\Desktop\HOLTEK\1070706\chaosTest0731\chaosTest0731.c" 1
 243  0003              	IF (2000==9)  AND ( __PBP__ > 2 )
 243  0003              ;# 243 "C:\Users\user1801\Desktop\HOLTEK\1070706\chaosTest0731\chaosTest0731.c" 1
 243  0003              	NOP
 243  0003              	ENDIF
 243  0003              ;# 243 "C:\Users\user1801\Desktop\HOLTEK\1070706\chaosTest0731\chaosTest0731.c" 1
 243  0003              	IF (2000< ( 8 + __PBP__ * 2)) AND (2000>( 3 + __PBP__ * 2))
 243  0003              ;# 243 "C:\Users\user1801\Desktop\HOLTEK\1070706\chaosTest0731\chaosTest0731.c" 1
 243  0003              	fcall __DELAY3 + ( 7 + __PBP__ * 2) -2000
 243  0003              	ENDIF
 243  0003              ;# 243 "C:\Users\user1801\Desktop\HOLTEK\1070706\chaosTest0731\chaosTest0731.c" 1
 243  0003              	IF (2000< ( 0404h + __PBP__ * 2)) AND (2000>( 7 + __PBP__ * 2))
 243  0003              ;# 243 "C:\Users\user1801\Desktop\HOLTEK\1070706\chaosTest0731\chaosTest0731.c" 1
 243  0003              	MOV A,(2000-( 4 + __PBP__ * 2))/4
 243  0003              ;# 243 "C:\Users\user1801\Desktop\HOLTEK\1070706\chaosTest0731\chaosTest0731.c" 1
 243  0003              	fcall __DELAYX3 + 3 -((2000-( 4 + __PBP__ * 2)) MOD 4) 
 243  0003              	ENDIF
 243  0003              ;# 243 "C:\Users\user1801\Desktop\HOLTEK\1070706\chaosTest0731\chaosTest0731.c" 1
 243  0003              	IF (2000< ( 040bh + __PBP__ * 2)) AND (2000> ( 0403h + __PBP__ * 2))
 243  0003              ;# 243 "C:\Users\user1801\Desktop\HOLTEK\1070706\chaosTest0731\chaosTest0731.c" 1
 243  0003              	MOV A,0 
 243  0003              ;# 243 "C:\Users\user1801\Desktop\HOLTEK\1070706\chaosTest0731\chaosTest0731.c" 1
 243  0003              	fcall __DELAYX6 + ( 040ah + __PBP__ * 2) -2000
 243  0003              	ENDIF
 243  0003              ;# 243 "C:\Users\user1801\Desktop\HOLTEK\1070706\chaosTest0731\chaosTest0731.c" 1
 243  0003              	IF (2000 >= ( 040bh + __PBP__ * 2)) AND ((((2000-( 9 + __PBP__ * 2))%0402h)/4+1)>256)
 243  0003              ;# 243 "C:\Users\user1801\Desktop\HOLTEK\1070706\chaosTest0731\chaosTest0731.c" 1
 243  0003              	MOV A,(2000-( 9 + __PBP__ * 2))/0402h
 243  0003              ;# 243 "C:\Users\user1801\Desktop\HOLTEK\1070706\chaosTest0731\chaosTest0731.c" 1
 243  0003              	MOV _builtin_holtek_delay_2,A
 243  0003              ;# 243 "C:\Users\user1801\Desktop\HOLTEK\1070706\chaosTest0731\chaosTest0731.c" 1
 243  0003              	MOV A,0
 243  0003              ;# 243 "C:\Users\user1801\Desktop\HOLTEK\1070706\chaosTest0731\chaosTest0731.c" 1
 243  0003              	fcall __DELAYY5 +5- (((2000-( 9 + __PBP__ * 2))%0402h)%6) 
 243  0003              	ENDIF
 243  0003              ;# 243 "C:\Users\user1801\Desktop\HOLTEK\1070706\chaosTest0731\chaosTest0731.c" 1
 243  0003              	IF (2000 >= ( 040bh + __PBP__ * 2)) AND ((((2000-( 9 + __PBP__ * 2))%0402h)/4+1)<=256)
 243  0003              ;# 243 "C:\Users\user1801\Desktop\HOLTEK\1070706\chaosTest0731\chaosTest0731.c" 1
 243  0003  0F01        	MOV A,(2000-( 9 + __PBP__ * 2))/0402h
 243  0004              ;# 243 "C:\Users\user1801\Desktop\HOLTEK\1070706\chaosTest0731\chaosTest0731.c" 1
 243  0004  0080     E  	MOV _builtin_holtek_delay_2,A
 243  0005              ;# 243 "C:\Users\user1801\Desktop\HOLTEK\1070706\chaosTest0731\chaosTest0731.c" 1
 243  0005  0FF1        	MOV A,((2000-( 9 + __PBP__ * 2))%0402h)/4+1
 243  0006              ;# 243 "C:\Users\user1801\Desktop\HOLTEK\1070706\chaosTest0731\chaosTest0731.c" 1
 243  0006              	fcall __DELAYY3 +3-(((2000-( 9 + __PBP__ * 2))%0402h)%4) 
 243  000D              	ENDIF
 243  000D  1480     E  	inc rb
 243  000E  3D0A        	sz z
 243  000F  1480     E  	inc rc
"File: chaosTest0731.c  Assembler  Version HGASM0202      Page 8

 243  0010              _L37:
 243  0010  0700     E  	mov a,rb
 243  0011  0200     R  	sub a,_delay_2[0]
 243  0012  0700     E  	mov a,rc
 243  0013  1200     R  	sbc a,_delay_2[1]
 243  0014  3B0A        	snz cz
 243  0015  2800     R  	jmp _L38
 243  0016  0003        	ret
 243  0017              _delay endp
 243  0017              #line 243 "C:\Users\user1801\Desktop\HOLTEK\1070706\chaosTest0731\chaosTest0731.c"
 243  0017              #pragma debug scope 1 1
 243  0017              public _intiChaos
 243  0017              #pragma debug scope 7 1
 248  0017              #line 248 "C:\Users\user1801\Desktop\HOLTEK\1070706\chaosTest0731\chaosTest0731.c"
 248  0000              _intiChaos .section 'code'
 248  0000              _intiChaos proc
 252  0000              #line 252 "C:\Users\user1801\Desktop\HOLTEK\1070706\chaosTest0731\chaosTest0731.c"
 252  0000  0F9A        	mov a,-102
 252  0001  0080     R  	mov _y1[0],a
 252  0002  0F99        	mov a,-103
 252  0003  0080     R  	mov _y1[1],a
 252  0004  0F99        	mov a,-103
 252  0005  0080     R  	mov _y1[2],a
 252  0006  0FBE        	mov a,-66
 252  0007  0080     R  	mov _y1[3],a
 253  0008              #line 253 "C:\Users\user1801\Desktop\HOLTEK\1070706\chaosTest0731\chaosTest0731.c"
 253  0008  0FCD        	mov a,-51
 253  0009  0080     R  	mov _y2[0],a
 253  000A  0FCC        	mov a,-52
 253  000B  0080     R  	mov _y2[1],a
 253  000C  0FCC        	mov a,-52
 253  000D  0080     R  	mov _y2[2],a
 253  000E  0FBD        	mov a,-67
 253  000F  0080     R  	mov _y2[3],a
 254  0010              #line 254 "C:\Users\user1801\Desktop\HOLTEK\1070706\chaosTest0731\chaosTest0731.c"
 254  0010  0FCD        	mov a,-51
 254  0011  0080     R  	mov _y3[0],a
 254  0012  0FCC        	mov a,-52
 254  0013  0080     R  	mov _y3[1],a
 254  0014  0F4C        	mov a,76
 254  0015  0080     R  	mov _y3[2],a
 254  0016  0F3F        	mov a,63
 254  0017  0080     R  	mov _y3[3],a
 255  0018              #line 255 "C:\Users\user1801\Desktop\HOLTEK\1070706\chaosTest0731\chaosTest0731.c"
 255  0018  1F00     R  	clr _ax1[0]
 255  0019  1F00     R  	clr _ax1[1]
 255  001A  0F80        	mov a,-128
 255  001B  0080     R  	mov _ax1[2],a
 255  001C  0F3F        	mov a,63
 255  001D  0080     R  	mov _ax1[3],a
 256  001E              #line 256 "C:\Users\user1801\Desktop\HOLTEK\1070706\chaosTest0731\chaosTest0731.c"
 256  001E  1F00     R  	clr _ax2[0]
 256  001F  1F00     R  	clr _ax2[1]
 256  0020  0F80        	mov a,-128
 256  0021  0080     R  	mov _ax2[2],a
 256  0022  0F3F        	mov a,63
 256  0023  0080     R  	mov _ax2[3],a
 257  0024              #line 257 "C:\Users\user1801\Desktop\HOLTEK\1070706\chaosTest0731\chaosTest0731.c"
 257  0024  1F00     R  	clr _ax3[0]
 257  0025  1F00     R  	clr _ax3[1]
"File: chaosTest0731.c  Assembler  Version HGASM0202      Page 9

 257  0026  0F80        	mov a,-128
 257  0027  0080     R  	mov _ax3[2],a
 257  0028  0F3F        	mov a,63
 257  0029  0080     R  	mov _ax3[3],a
 258  002A              #line 258 "C:\Users\user1801\Desktop\HOLTEK\1070706\chaosTest0731\chaosTest0731.c"
 258  002A  1F00     R  	clr _dx1[0]
 258  002B  1F00     R  	clr _dx1[1]
 258  002C  0F80        	mov a,-128
 258  002D  0080     R  	mov _dx1[2],a
 258  002E  0F3F        	mov a,63
 258  002F  0080     R  	mov _dx1[3],a
 259  0030              #line 259 "C:\Users\user1801\Desktop\HOLTEK\1070706\chaosTest0731\chaosTest0731.c"
 259  0030  1F00     R  	clr _dx2[0]
 259  0031  1F00     R  	clr _dx2[1]
 259  0032  0F80        	mov a,-128
 259  0033  0080     R  	mov _dx2[2],a
 259  0034  0F3F        	mov a,63
 259  0035  0080     R  	mov _dx2[3],a
 260  0036              #line 260 "C:\Users\user1801\Desktop\HOLTEK\1070706\chaosTest0731\chaosTest0731.c"
 260  0036  1F00     R  	clr _dx3[0]
 260  0037  1F00     R  	clr _dx3[1]
 260  0038  0F80        	mov a,-128
 260  0039  0080     R  	mov _dx3[2],a
 260  003A  0F3F        	mov a,63
 260  003B  0080     R  	mov _dx3[3],a
 261  003C              #line 261 "C:\Users\user1801\Desktop\HOLTEK\1070706\chaosTest0731\chaosTest0731.c"
 261  003C  1F00     R  	clr _c1[0]
 261  003D  1F00     R  	clr _c1[1]
 261  003E  1F00     R  	clr _c1[2]
 261  003F  0FBF        	mov a,-65
 261  0040  0080     R  	mov _c1[3],a
 262  0041              #line 262 "C:\Users\user1801\Desktop\HOLTEK\1070706\chaosTest0731\chaosTest0731.c"
 262  0041  0F8F        	mov a,-113
 262  0042  0080     R  	mov _c2[0],a
 262  0043  0FC2        	mov a,-62
 262  0044  0080     R  	mov _c2[1],a
 262  0045  0F75        	mov a,117
 262  0046  0080     R  	mov _c2[2],a
 262  0047  0F3D        	mov a,61
 262  0048  0080     R  	mov _c2[3],a
 263  0049              #line 263 "C:\Users\user1801\Desktop\HOLTEK\1070706\chaosTest0731\chaosTest0731.c"
 263  0049  0FCD        	mov a,-51
 263  004A  0080     R  	mov _A[0],a
 263  004B  0FCC        	mov a,-52
 263  004C  0080     R  	mov _A[1],a
 263  004D  0FCC        	mov a,-52
 263  004E  0080     R  	mov _A[2],a
 263  004F  0F3D        	mov a,61
 263  0050  0080     R  	mov _A[3],a
 263  0051  0003        	ret
 263  0052              _intiChaos endp
 263  0052              #line 263 "C:\Users\user1801\Desktop\HOLTEK\1070706\chaosTest0731\chaosTest0731.c"
 263  0052              #pragma debug scope 1 1
 263  0052              ___wdtc equ [62]
 263  0052              ___pac equ [19]
 263  0052              ___integ equ [57]
 263  0052              ___tm0c1 equ [95]
 263  0052              ___tm1c0 equ [72]
 263  0052              ___tm1c1 equ [73]
 263  0052              ___tm1c2 equ [74]
"File: chaosTest0731.c  Assembler  Version HGASM0202      Page 10

 263  0052              ___tm1al equ [77]
 263  0052              ___tm1ah equ [78]
 263  0052              ___tm1bl equ [79]
 263  0052              ___tm1bh equ [80]
 263  0052              ___tm3c0 equ [88]
 263  0052              ___tm3c1 equ [89]
 263  0052              ___tm3al equ [92]
 263  0052              ___tm3ah equ [93]
 263  0052              ___pcs3 equ [363]
 263  0052              ___pcs0 equ [360]
 263  0052              ___pds0 equ [364]
 263  0052              ___pdc equ [31]
 263  0052              ___pdpu equ [29]
 263  0052              ___pd equ [30]
 263  0052              public _main
 263  0052              #pragma debug scope 8 1
  58  0052              #line 58 "C:\Users\user1801\Desktop\HOLTEK\1070706\chaosTest0731\chaosTest0731.c"
  58  0052              IFDEF WITH_DEFAULT_STARTUP
  58  0052              extern _main_initial0:near
  58  0052              extern _main_startup:near
  58  0052              ENDIF
  58  0052              
  58  0052              ROMBANK 0 @start
  58  0000              @start .section com_l 'code'
  58  0000              _main_startup1:
  58  0000              @start .section com_e 'code'
  58  0000  0F00     R  	mov a,bank _main
  58  0001  008B        	mov bp,a
  58  0002  2800     R  	jmp _main
  58  0003              
  58  0000              _main .section 'code'
  58  0000              _main proc
  58  0000  0006[           local _main_2 db 6 dup(?)
            00
            ]
  58  0006              #pragma debug variable 11 8 _main_2+4 "doOnce"
  58  0006              #pragma debug struct_end
  58  0006              #pragma debug struct_end
  58  0006              #pragma debug union_end
  58  0006              #pragma debug union_end
  58  0006              #pragma debug variable 43 8 _main_2+0 "IEEE754Val"
  60  0006              #line 60 "C:\Users\user1801\Desktop\HOLTEK\1070706\chaosTest0731\chaosTest0731.c"
  60  0000  0FAF        	mov a,175
  60  0001  00BE        	mov [62],a
  61  0002              #line 61 "C:\Users\user1801\Desktop\HOLTEK\1070706\chaosTest0731\chaosTest0731.c"
  61  0002  3193        	set [19].3
  61  0003  0F02        	mov a,2
  61  0004  00B9        	mov [57],a
  61  0005  30B0        	set [48].1
  62  0006              #line 62 "C:\Users\user1801\Desktop\HOLTEK\1070706\chaosTest0731\chaosTest0731.c"
  62  0006  3092        	set [18].1
  62  0007  3493        	clr [19].1
  63  0008              #line 63 "C:\Users\user1801\Desktop\HOLTEK\1070706\chaosTest0731\chaosTest0731.c"
  63  0008  0F10        	mov a,16
  63  0009  00DE        	mov [94],a
  64  000A              #line 64 "C:\Users\user1801\Desktop\HOLTEK\1070706\chaosTest0731\chaosTest0731.c"
  64  000A  0FC1        	mov a,193
  64  000B  00DF        	mov [95],a
  66  000C              #line 66 "C:\Users\user1801\Desktop\HOLTEK\1070706\chaosTest0731\chaosTest0731.c"
  66  000C  0F30        	mov a,48
"File: chaosTest0731.c  Assembler  Version HGASM0202      Page 11

  66  000D  00C8        	mov [72],a
  67  000E              #line 67 "C:\Users\user1801\Desktop\HOLTEK\1070706\chaosTest0731\chaosTest0731.c"
  67  000E  0FA8        	mov a,168
  67  000F  00C9        	mov [73],a
  68  0010              #line 68 "C:\Users\user1801\Desktop\HOLTEK\1070706\chaosTest0731\chaosTest0731.c"
  68  0010  0FA8        	mov a,168
  68  0011  00CA        	mov [74],a
  69  0012              #line 69 "C:\Users\user1801\Desktop\HOLTEK\1070706\chaosTest0731\chaosTest0731.c"
  69  0012  1F4D        	clr [77]
  69  0013  1F4E        	clr [78]
  70  0014              #line 70 "C:\Users\user1801\Desktop\HOLTEK\1070706\chaosTest0731\chaosTest0731.c"
  70  0014  1F4F        	clr [79]
  70  0015  1F50        	clr [80]
  72  0016              #line 72 "C:\Users\user1801\Desktop\HOLTEK\1070706\chaosTest0731\chaosTest0731.c"
  72  0016  0F30        	mov a,48
  72  0017  00D8        	mov [88],a
  73  0018              #line 73 "C:\Users\user1801\Desktop\HOLTEK\1070706\chaosTest0731\chaosTest0731.c"
  73  0018  0FA8        	mov a,168
  73  0019  00D9        	mov [89],a
  74  001A              #line 74 "C:\Users\user1801\Desktop\HOLTEK\1070706\chaosTest0731\chaosTest0731.c"
  74  001A  1F5C        	clr [92]
  74  001B  1F5D        	clr [93]
  76  001C              #line 76 "C:\Users\user1801\Desktop\HOLTEK\1070706\chaosTest0731\chaosTest0731.c"
  76  001C  0F10        	mov a,16
  76  001D  80EB 0001   	lmov [363],a
  77  001F              #line 77 "C:\Users\user1801\Desktop\HOLTEK\1070706\chaosTest0731\chaosTest0731.c"
  77  001F  0F10        	mov a,16
  77  0020  80E8 0001   	lmov [360],a
  78  0022              #line 78 "C:\Users\user1801\Desktop\HOLTEK\1070706\chaosTest0731\chaosTest0731.c"
  78  0022  0F01        	mov a,1
  78  0023  80EC 0001   	lmov [364],a
  80  0025              #line 80 "C:\Users\user1801\Desktop\HOLTEK\1070706\chaosTest0731\chaosTest0731.c"
  80  0025  3030        	set [48].0
  81  0026              #line 81 "C:\Users\user1801\Desktop\HOLTEK\1070706\chaosTest0731\chaosTest0731.c"
  81  0026  1F00     R  	clr _b_RX[0]
  82  0027              #line 82 "C:\Users\user1801\Desktop\HOLTEK\1070706\chaosTest0731\chaosTest0731.c"
  82  0027  31C8        	set [72].3
  82  0028  31D8        	set [88].3
  84  0029              #line 84 "C:\Users\user1801\Desktop\HOLTEK\1070706\chaosTest0731\chaosTest0731.c"
  84  0029  371F        	clr [31].6
  85  002A              #line 85 "C:\Users\user1801\Desktop\HOLTEK\1070706\chaosTest0731\chaosTest0731.c"
  85  002A  371D        	clr [29].6
  86  002B              #line 86 "C:\Users\user1801\Desktop\HOLTEK\1070706\chaosTest0731\chaosTest0731.c"
  86  002B  371E        	clr [30].6
  88  002C              #line 88 "C:\Users\user1801\Desktop\HOLTEK\1070706\chaosTest0731\chaosTest0731.c"
  88  002C              	fcall _intiChaos
  89  0033              #line 89 "C:\Users\user1801\Desktop\HOLTEK\1070706\chaosTest0731\chaosTest0731.c"
  89  0033  1F00     R  	clr _main_2[4]
  89  0034  1F00     R  	clr _main_2[5]
  94  0035              #line 94 "C:\Users\user1801\Desktop\HOLTEK\1070706\chaosTest0731\chaosTest0731.c"
  94  0035  331E        	set [30].6
  95  0036              #line 95 "C:\Users\user1801\Desktop\HOLTEK\1070706\chaosTest0731\chaosTest0731.c"
  95  0036  0FE8        	mov a,-24
  95  0037  0080     R  	mov _delay_2[0],a
  95  0038  0F03        	mov a,3
  95  0039  0080     R  	mov _delay_2[1],a
  95  003A              	fcall _delay
  96  0041              #line 96 "C:\Users\user1801\Desktop\HOLTEK\1070706\chaosTest0731\chaosTest0731.c"
  96  0041  371E        	clr [30].6
 108  0042              #line 108 "C:\Users\user1801\Desktop\HOLTEK\1070706\chaosTest0731\chaosTest0731.c"
"File: chaosTest0731.c  Assembler  Version HGASM0202      Page 12

 108  0042  1F00     R  	clr _main_2[0]
 108  0043  1F00     R  	clr _main_2[1]
 108  0044  0F48        	mov a,72
 108  0045  0080     R  	mov _main_2[2],a
 108  0046  0F41        	mov a,65
 108  0047  0080     R  	mov _main_2[3],a
 109  0048              #line 109 "C:\Users\user1801\Desktop\HOLTEK\1070706\chaosTest0731\chaosTest0731.c"
 109  0048  0700     R  	mov a,_main_2[3]
 109  0049  0080     E  	mov ra,a
 109  004A  0FE0        	mov a,224
 109  004B  0580     R  	orm a,_main_2[3]
 109  004C              _L41:
 112  004C              #line 112 "C:\Users\user1801\Desktop\HOLTEK\1070706\chaosTest0731\chaosTest0731.c"
 112  004C  1E00     R  	snz _b_RX[0]
 112  004D  2800     R  	jmp _L43
 113  004E              #line 113 "C:\Users\user1801\Desktop\HOLTEK\1070706\chaosTest0731\chaosTest0731.c"
 113  004E  0700     R  	mov a,_RxData[0]
 113  004F  0080     R  	mov _key[0],a
 113  0050  1F00     R  	clr _b_RX[0]
 114  0051              #line 114 "C:\Users\user1801\Desktop\HOLTEK\1070706\chaosTest0731\chaosTest0731.c"
 114  0051  331E        	set [30].6
 115  0052              #line 115 "C:\Users\user1801\Desktop\HOLTEK\1070706\chaosTest0731\chaosTest0731.c"
 115  0052  0FE8        	mov a,-24
 115  0053  0080     R  	mov _delay_2[0],a
 115  0054  0F03        	mov a,3
 115  0055  0080     R  	mov _delay_2[1],a
 115  0056              	fcall _delay
 116  005D              #line 116 "C:\Users\user1801\Desktop\HOLTEK\1070706\chaosTest0731\chaosTest0731.c"
 116  005D  371E        	clr [30].6
 118  005E              #line 118 "C:\Users\user1801\Desktop\HOLTEK\1070706\chaosTest0731\chaosTest0731.c"
 118  005E  0700     R  	mov a,_switchCaseNum[0]
 118  005F  0C01        	xor a,1
 118  0060  0500     R  	or a,_switchCaseNum[1]
 118  0061  3D0A        	sz z
 118  0062  2800     R  	jmp _L44
 118  0063  0700     R  	mov a,_switchCaseNum[0]
 118  0064  0C02        	xor a,2
 118  0065  0500     R  	or a,_switchCaseNum[1]
 118  0066  3D0A        	sz z
 118  0067  2800     R  	jmp _L45
 118  0068  0700     R  	mov a,_switchCaseNum[0]
 118  0069  0C03        	xor a,3
 118  006A  0500     R  	or a,_switchCaseNum[1]
 118  006B  3D0A        	sz z
 118  006C  2800     R  	jmp _L46
 118  006D  0700     R  	mov a,_switchCaseNum[0]
 118  006E  0C04        	xor a,4
 118  006F  0500     R  	or a,_switchCaseNum[1]
 118  0070  3D0A        	sz z
 118  0071  2800     R  	jmp _L47
 118  0072  0700     R  	mov a,_switchCaseNum[0]
 118  0073  0C05        	xor a,5
 118  0074  0500     R  	or a,_switchCaseNum[1]
 118  0075  3D0A        	sz z
 118  0076  2800     R  	jmp _L48
 118  0077  0700     R  	mov a,_switchCaseNum[0]
 118  0078  0C06        	xor a,6
 118  0079  0500     R  	or a,_switchCaseNum[1]
 118  007A  3D0A        	sz z
 118  007B  2800     R  	jmp _L49
"File: chaosTest0731.c  Assembler  Version HGASM0202      Page 13

 118  007C  0700     R  	mov a,_switchCaseNum[0]
 118  007D  0C07        	xor a,7
 118  007E  0500     R  	or a,_switchCaseNum[1]
 118  007F  3D0A        	sz z
 118  0080  2800     R  	jmp _L50
 118  0081  0700     R  	mov a,_switchCaseNum[0]
 118  0082  0C08        	xor a,8
 118  0083  0500     R  	or a,_switchCaseNum[1]
 118  0084  3D0A        	sz z
 118  0085  2800     R  	jmp _L51
 118  0086  0700     R  	mov a,_switchCaseNum[0]
 118  0087  0C09        	xor a,9
 118  0088  0500     R  	or a,_switchCaseNum[1]
 118  0089  3D0A        	sz z
 118  008A  2800     R  	jmp _L52
 118  008B  0700     R  	mov a,_switchCaseNum[0]
 118  008C  0C0A        	xor a,10
 118  008D  0500     R  	or a,_switchCaseNum[1]
 118  008E  3D0A        	sz z
 118  008F  2800     R  	jmp _L53
 118  0090  0700     R  	mov a,_switchCaseNum[0]
 118  0091  0C0B        	xor a,11
 118  0092  0500     R  	or a,_switchCaseNum[1]
 118  0093  390A        	snz z
 118  0094  2800     R  	jmp _L41
 160  0095              #line 160 "C:\Users\user1801\Desktop\HOLTEK\1070706\chaosTest0731\chaosTest0731.c"
 160  0095  0700     R  	mov a,_u1Val[0]
 160  0096  0080     E  	mov ra,a
 160  0097  0700     R  	mov a,_key[0]
 160  0098  0080     E  	mov ra,a
 161  0099              #line 161 "C:\Users\user1801\Desktop\HOLTEK\1070706\chaosTest0731\chaosTest0731.c"
 161  0099  0F01        	mov a,1
 161  009A  0080     R  	mov _switchCaseNum[0],a
 161  009B  1F00     R  	clr _switchCaseNum[1]
 162  009C              #line 162 "C:\Users\user1801\Desktop\HOLTEK\1070706\chaosTest0731\chaosTest0731.c"
 162  009C  2800     R  	jmp _L41
 162  009D              _L44:
 120  009D              #line 120 "C:\Users\user1801\Desktop\HOLTEK\1070706\chaosTest0731\chaosTest0731.c"
 120  009D  0700     R  	mov a,_u1Val[3]
 120  009E  0080     E  	mov ra,a
 120  009F  0700     R  	mov a,_key[0]
 120  00A0  0080     E  	mov ra,a
 121  00A1              #line 121 "C:\Users\user1801\Desktop\HOLTEK\1070706\chaosTest0731\chaosTest0731.c"
 121  00A1  0F02        	mov a,2
 121  00A2  0080     R  	mov _switchCaseNum[0],a
 121  00A3  1F00     R  	clr _switchCaseNum[1]
 122  00A4              #line 122 "C:\Users\user1801\Desktop\HOLTEK\1070706\chaosTest0731\chaosTest0731.c"
 122  00A4  2800     R  	jmp _L41
 122  00A5              _L45:
 124  00A5              #line 124 "C:\Users\user1801\Desktop\HOLTEK\1070706\chaosTest0731\chaosTest0731.c"
 124  00A5  0700     R  	mov a,_u1Val[3]
 124  00A6  0080     E  	mov ra,a
 124  00A7  0700     R  	mov a,_key[0]
 124  00A8  0080     E  	mov ra,a
 125  00A9              #line 125 "C:\Users\user1801\Desktop\HOLTEK\1070706\chaosTest0731\chaosTest0731.c"
 125  00A9  0F03        	mov a,3
 125  00AA  0080     R  	mov _switchCaseNum[0],a
 125  00AB  1F00     R  	clr _switchCaseNum[1]
 126  00AC              #line 126 "C:\Users\user1801\Desktop\HOLTEK\1070706\chaosTest0731\chaosTest0731.c"
 126  00AC  2800     R  	jmp _L41
"File: chaosTest0731.c  Assembler  Version HGASM0202      Page 14

 126  00AD              _L46:
 128  00AD              #line 128 "C:\Users\user1801\Desktop\HOLTEK\1070706\chaosTest0731\chaosTest0731.c"
 128  00AD  0700     R  	mov a,_u1Val[2]
 128  00AE  0080     E  	mov ra,a
 128  00AF  0700     R  	mov a,_u1Val[3]
 128  00B0  0080     E  	mov ra,a
 128  00B1  0700     R  	mov a,_key[0]
 128  00B2  0080     E  	mov ra,a
 129  00B3              #line 129 "C:\Users\user1801\Desktop\HOLTEK\1070706\chaosTest0731\chaosTest0731.c"
 129  00B3  0F04        	mov a,4
 129  00B4  0080     R  	mov _switchCaseNum[0],a
 129  00B5  1F00     R  	clr _switchCaseNum[1]
 130  00B6              #line 130 "C:\Users\user1801\Desktop\HOLTEK\1070706\chaosTest0731\chaosTest0731.c"
 130  00B6  2800     R  	jmp _L41
 130  00B7              _L47:
 132  00B7              #line 132 "C:\Users\user1801\Desktop\HOLTEK\1070706\chaosTest0731\chaosTest0731.c"
 132  00B7  0700     R  	mov a,_u1Val[2]
 132  00B8  0080     E  	mov ra,a
 132  00B9  0700     R  	mov a,_key[0]
 132  00BA  0080     E  	mov ra,a
 133  00BB              #line 133 "C:\Users\user1801\Desktop\HOLTEK\1070706\chaosTest0731\chaosTest0731.c"
 133  00BB  0F05        	mov a,5
 133  00BC  0080     R  	mov _switchCaseNum[0],a
 133  00BD  1F00     R  	clr _switchCaseNum[1]
 134  00BE              #line 134 "C:\Users\user1801\Desktop\HOLTEK\1070706\chaosTest0731\chaosTest0731.c"
 134  00BE  2800     R  	jmp _L41
 134  00BF              _L48:
 136  00BF              #line 136 "C:\Users\user1801\Desktop\HOLTEK\1070706\chaosTest0731\chaosTest0731.c"
 136  00BF  0700     R  	mov a,_u1Val[2]
 136  00C0  0080     E  	mov ra,a
 136  00C1  0700     R  	mov a,_key[0]
 136  00C2  0080     E  	mov ra,a
 137  00C3              #line 137 "C:\Users\user1801\Desktop\HOLTEK\1070706\chaosTest0731\chaosTest0731.c"
 137  00C3  0F06        	mov a,6
 137  00C4  0080     R  	mov _switchCaseNum[0],a
 137  00C5  1F00     R  	clr _switchCaseNum[1]
 138  00C6              #line 138 "C:\Users\user1801\Desktop\HOLTEK\1070706\chaosTest0731\chaosTest0731.c"
 138  00C6  2800     R  	jmp _L41
 138  00C7              _L49:
 140  00C7              #line 140 "C:\Users\user1801\Desktop\HOLTEK\1070706\chaosTest0731\chaosTest0731.c"
 140  00C7  0700     R  	mov a,_u1Val[1]
 140  00C8  0080     E  	mov ra,a
 140  00C9  0700     R  	mov a,_u1Val[2]
 140  00CA  0080     E  	mov ra,a
 140  00CB  0700     R  	mov a,_key[0]
 140  00CC  0080     E  	mov ra,a
 141  00CD              #line 141 "C:\Users\user1801\Desktop\HOLTEK\1070706\chaosTest0731\chaosTest0731.c"
 141  00CD  0F07        	mov a,7
 141  00CE  0080     R  	mov _switchCaseNum[0],a
 141  00CF  1F00     R  	clr _switchCaseNum[1]
 142  00D0              #line 142 "C:\Users\user1801\Desktop\HOLTEK\1070706\chaosTest0731\chaosTest0731.c"
 142  00D0  2800     R  	jmp _L41
 142  00D1              _L50:
 144  00D1              #line 144 "C:\Users\user1801\Desktop\HOLTEK\1070706\chaosTest0731\chaosTest0731.c"
 144  00D1  0700     R  	mov a,_u1Val[1]
 144  00D2  0080     E  	mov ra,a
 144  00D3  0700     R  	mov a,_key[0]
 144  00D4  0080     E  	mov ra,a
 145  00D5              #line 145 "C:\Users\user1801\Desktop\HOLTEK\1070706\chaosTest0731\chaosTest0731.c"
 145  00D5  0F08        	mov a,8
"File: chaosTest0731.c  Assembler  Version HGASM0202      Page 15

 145  00D6  0080     R  	mov _switchCaseNum[0],a
 145  00D7  1F00     R  	clr _switchCaseNum[1]
 146  00D8              #line 146 "C:\Users\user1801\Desktop\HOLTEK\1070706\chaosTest0731\chaosTest0731.c"
 146  00D8  2800     R  	jmp _L41
 146  00D9              _L51:
 148  00D9              #line 148 "C:\Users\user1801\Desktop\HOLTEK\1070706\chaosTest0731\chaosTest0731.c"
 148  00D9  0700     R  	mov a,_u1Val[1]
 148  00DA  0080     E  	mov ra,a
 148  00DB  0700     R  	mov a,_key[0]
 148  00DC  0080     E  	mov ra,a
 149  00DD              #line 149 "C:\Users\user1801\Desktop\HOLTEK\1070706\chaosTest0731\chaosTest0731.c"
 149  00DD  0F09        	mov a,9
 149  00DE  0080     R  	mov _switchCaseNum[0],a
 149  00DF  1F00     R  	clr _switchCaseNum[1]
 150  00E0              #line 150 "C:\Users\user1801\Desktop\HOLTEK\1070706\chaosTest0731\chaosTest0731.c"
 150  00E0  2800     R  	jmp _L41
 150  00E1              _L52:
 152  00E1              #line 152 "C:\Users\user1801\Desktop\HOLTEK\1070706\chaosTest0731\chaosTest0731.c"
 152  00E1  0700     R  	mov a,_u1Val[0]
 152  00E2  0080     E  	mov ra,a
 152  00E3  0700     R  	mov a,_key[0]
 152  00E4  0080     E  	mov ra,a
 153  00E5              #line 153 "C:\Users\user1801\Desktop\HOLTEK\1070706\chaosTest0731\chaosTest0731.c"
 153  00E5  0F0A        	mov a,10
 153  00E6  0080     R  	mov _switchCaseNum[0],a
 153  00E7  1F00     R  	clr _switchCaseNum[1]
 154  00E8              #line 154 "C:\Users\user1801\Desktop\HOLTEK\1070706\chaosTest0731\chaosTest0731.c"
 154  00E8  2800     R  	jmp _L41
 154  00E9              _L53:
 156  00E9              #line 156 "C:\Users\user1801\Desktop\HOLTEK\1070706\chaosTest0731\chaosTest0731.c"
 156  00E9  0700     R  	mov a,_u1Val[0]
 156  00EA  0080     E  	mov ra,a
 156  00EB  0700     R  	mov a,_key[0]
 156  00EC  0080     E  	mov ra,a
 157  00ED              #line 157 "C:\Users\user1801\Desktop\HOLTEK\1070706\chaosTest0731\chaosTest0731.c"
 157  00ED  0F0B        	mov a,11
 157  00EE  0080     R  	mov _switchCaseNum[0],a
 157  00EF  1F00     R  	clr _switchCaseNum[1]
 158  00F0              #line 158 "C:\Users\user1801\Desktop\HOLTEK\1070706\chaosTest0731\chaosTest0731.c"
 158  00F0  2800     R  	jmp _L41
 158  00F1              _L43:
 166  00F1              #line 166 "C:\Users\user1801\Desktop\HOLTEK\1070706\chaosTest0731\chaosTest0731.c"
 166  00F1              	fcall _ScanKey
 166  00F8  0080     E  	mov ra,a
 166  00F9  0700     E  	mov a,ra
 166  00FA  0080     R  	mov _key[0],a
 167  00FB              #line 167 "C:\Users\user1801\Desktop\HOLTEK\1070706\chaosTest0731\chaosTest0731.c"
 167  00FB  0700     R  	mov a,_key[0]
 167  00FC  0A0C        	sub a,12
 167  00FD  3D0A        	sz z
 167  00FE  2800     R  	jmp _L41
 168  00FF              #line 168 "C:\Users\user1801\Desktop\HOLTEK\1070706\chaosTest0731\chaosTest0731.c"
 168  00FF  0700     R  	mov a,_key[0]
 168  0100  0080     E  	mov ra,a
 168  0101  0700     E  	mov a,ra
 168  0102              	fcall _UARTTxData
 169  0109              #line 169 "C:\Users\user1801\Desktop\HOLTEK\1070706\chaosTest0731\chaosTest0731.c"
 169  0109  1100     R  	swapa _main_2[3]
 169  010A  1985        	rr acc
 169  010B  0E07        	and a,07h
"File: chaosTest0731.c  Assembler  Version HGASM0202      Page 16

 169  010C  0080     E  	mov ra,a
 169  010D  0700     E  	mov a,ra
 169  010E              	fcall _UARTTxData
 170  0115              #line 170 "C:\Users\user1801\Desktop\HOLTEK\1070706\chaosTest0731\chaosTest0731.c"
 170  0115  1900     R  	rra _main_2[3]
 170  0116  1985        	rr acc
 170  0117  0E3F        	and a,03fh
 170  0118  0080     E  	mov ra,a
 170  0119  0F07        	mov a,7
 170  011A  0680     E  	andm a,ra
 170  011B  0700     E  	mov a,ra
 170  011C              	fcall _UARTTxData
 171  0123              #line 171 "C:\Users\user1801\Desktop\HOLTEK\1070706\chaosTest0731\chaosTest0731.c"
 171  0123  1800     R  	rla _main_2[2]
 171  0124  0E01        	and a,1
 171  0125  0080     E  	mov rb,a
 171  0126  0700     R  	mov a,_main_2[3]
 171  0127  0E03        	and a,3
 171  0128  0080     E  	mov ra,a
 171  0129  0700     E  	mov a,ra
 171  012A  0380     E  	addm a,ra
 171  012B  0700     E  	mov a,rb
 171  012C  0580     E  	orm a,ra
 171  012D  0700     E  	mov a,ra
 171  012E              	fcall _UARTTxData
 172  0135              #line 172 "C:\Users\user1801\Desktop\HOLTEK\1070706\chaosTest0731\chaosTest0731.c"
 172  0135  1100     R  	swapa _main_2[2]
 172  0136  0E0F        	and a,0fh
 172  0137  0080     E  	mov ra,a
 172  0138  0F07        	mov a,7
 172  0139  0680     E  	andm a,ra
 172  013A  0700     E  	mov a,ra
 172  013B              	fcall _UARTTxData
 173  0142              #line 173 "C:\Users\user1801\Desktop\HOLTEK\1070706\chaosTest0731\chaosTest0731.c"
 173  0142  1900     R  	rra _main_2[2]
 173  0143  0E7F        	and a,07fh
 173  0144  0080     E  	mov ra,a
 173  0145  0F07        	mov a,7
 173  0146  0680     E  	andm a,ra
 173  0147  0700     E  	mov a,ra
 173  0148              	fcall _UARTTxData
 174  014F              #line 174 "C:\Users\user1801\Desktop\HOLTEK\1070706\chaosTest0731\chaosTest0731.c"
 174  014F  1800     R  	rla _main_2[1]
 174  0150  1885        	rl acc
 174  0151  0E03        	and a,3
 174  0152  0080     E  	mov ra,a
 174  0153  0700     R  	mov a,_main_2[2]
 174  0154  0E01        	and a,1
 174  0155  0080     E  	mov rc,a
 174  0156  1F00     E  	clr rb
 174  0157  1080     E  	sz rc
 174  0158  3000     E  	set rb.2
 174  0159  0700     E  	mov a,rb
 174  015A  0580     E  	orm a,ra
 174  015B  0700     E  	mov a,ra
 174  015C              	fcall _UARTTxData
 175  0163              #line 175 "C:\Users\user1801\Desktop\HOLTEK\1070706\chaosTest0731\chaosTest0731.c"
 175  0163  1100     R  	swapa _main_2[1]
 175  0164  1885        	rl acc
 175  0165  0E1F        	and a,1fh
"File: chaosTest0731.c  Assembler  Version HGASM0202      Page 17

 175  0166  0080     E  	mov ra,a
 175  0167  0F07        	mov a,7
 175  0168  0680     E  	andm a,ra
 175  0169  0700     E  	mov a,ra
 175  016A              	fcall _UARTTxData
 176  0171              #line 176 "C:\Users\user1801\Desktop\HOLTEK\1070706\chaosTest0731\chaosTest0731.c"
 176  0171  0700     R  	mov a,_main_2[1]
 176  0172  0E07        	and a,7
 176  0173  0080     E  	mov ra,a
 176  0174  0700     E  	mov a,ra
 176  0175              	fcall _UARTTxData
 177  017C              #line 177 "C:\Users\user1801\Desktop\HOLTEK\1070706\chaosTest0731\chaosTest0731.c"
 177  017C  1100     R  	swapa _main_2[0]
 177  017D  1985        	rr acc
 177  017E  0E07        	and a,07h
 177  017F  0080     E  	mov ra,a
 177  0180  0700     E  	mov a,ra
 177  0181              	fcall _UARTTxData
 178  0188              #line 178 "C:\Users\user1801\Desktop\HOLTEK\1070706\chaosTest0731\chaosTest0731.c"
 178  0188  1900     R  	rra _main_2[0]
 178  0189  1985        	rr acc
 178  018A  0E3F        	and a,03fh
 178  018B  0080     E  	mov ra,a
 178  018C  0F07        	mov a,7
 178  018D  0680     E  	andm a,ra
 178  018E  0700     E  	mov a,ra
 178  018F              	fcall _UARTTxData
 179  0196              #line 179 "C:\Users\user1801\Desktop\HOLTEK\1070706\chaosTest0731\chaosTest0731.c"
 179  0196  0700     R  	mov a,_main_2[0]
 179  0197  0E03        	and a,3
 179  0198  0080     E  	mov ra,a
 179  0199  0700     E  	mov a,ra
 179  019A              	fcall _UARTTxData
 180  01A1              #line 180 "C:\Users\user1801\Desktop\HOLTEK\1070706\chaosTest0731\chaosTest0731.c"
 180  01A1  0FC8        	mov a,-56
 180  01A2  0080     R  	mov _delay_2[0],a
 180  01A3  1F00     R  	clr _delay_2[1]
 180  01A4              	fcall _delay
 180  01AB  2800     R  	jmp _L41
 180  01AC  2800     R  	jmp $
 180  01AD              _main endp
 180  01AD              
 180  01AD              @dummy endp
 180  01AD              
 180  01AD              #line 180 "C:\Users\user1801\Desktop\HOLTEK\1070706\chaosTest0731\chaosTest0731.c"
 180  01AD              #pragma debug scope 1 1
 180  01AD              public _chaosMath
 180  01AD              #pragma debug scope 9 1
 265  01AD              #line 265 "C:\Users\user1801\Desktop\HOLTEK\1070706\chaosTest0731\chaosTest0731.c"
 265  0000              _chaosMath .section 'code'
 265  0000              _chaosMath proc
 265  0000              public _chaosMath_2
 265  0000  0030[           local _chaosMath_2 db 48 dup(?)	; 4,44
            00
            ]
 265  0030              #pragma debug variable 29 9 _chaosMath_2+0 "u1"
 266  0030              #line 266 "C:\Users\user1801\Desktop\HOLTEK\1070706\chaosTest0731\chaosTest0731.c"
 266  0000  0700     R  	mov a,_ax2[3]
 266  0001  0080     E  	mov _builtin_holtek_mant12p[0],a
 266  0002  0700     R  	mov a,_ax2[2]
"File: chaosTest0731.c  Assembler  Version HGASM0202      Page 18

 266  0003  0080     E  	mov _builtin_holtek_mant1[2],a
 266  0004  0700     R  	mov a,_ax2[1]
 266  0005  0080     E  	mov _builtin_holtek_mant1[1],a
 266  0006  0700     R  	mov a,_ax2[0]
 266  0007  0080     E  	mov _builtin_holtek_mant1[0],a
 266  0008  0700     R  	mov a,_ax2[3]
 266  0009  0080     E  	mov _builtin_holtek_mant12p[1],a
 266  000A  0700     R  	mov a,_ax2[2]
 266  000B  0080     E  	mov _builtin_holtek_mant2[2],a
 266  000C  0700     R  	mov a,_ax2[1]
 266  000D  0080     E  	mov _builtin_holtek_mant2[1],a
 266  000E  0700     R  	mov a,_ax2[0]
 266  000F  0080     E  	mov _builtin_holtek_mant2[0],a
 266  0010              	fcall _builtin_holtek_dtmul
 266  0017  0700     E  	mov a,_builtin_holtek_mant12p[0]
 266  0018  0080     E  	mov rg,a
 266  0019  0700     E  	mov a,_builtin_holtek_mant1[2]
 266  001A  0080     E  	mov rf,a
 266  001B  0700     E  	mov a,_builtin_holtek_mant1[1]
 266  001C  0080     E  	mov re,a
 266  001D  0700     E  	mov a,_builtin_holtek_mant1[0]
 266  001E  0080     E  	mov rd,a
 266  001F  0700     R  	mov a,_ax1[3]
 266  0020  0080     E  	mov _builtin_holtek_mant12p[0],a
 266  0021  0700     R  	mov a,_ax1[2]
 266  0022  0080     E  	mov _builtin_holtek_mant1[2],a
 266  0023  0700     R  	mov a,_ax1[1]
 266  0024  0080     E  	mov _builtin_holtek_mant1[1],a
 266  0025  0700     R  	mov a,_ax1[0]
 266  0026  0080     E  	mov _builtin_holtek_mant1[0],a
 266  0027  0700     E  	mov a,rg
 266  0028  0080     E  	mov _builtin_holtek_mant12p[1],a
 266  0029  0700     E  	mov a,rf
 266  002A  0080     E  	mov _builtin_holtek_mant2[2],a
 266  002B  0700     E  	mov a,re
 266  002C  0080     E  	mov _builtin_holtek_mant2[1],a
 266  002D  0700     E  	mov a,rd
 266  002E  0080     E  	mov _builtin_holtek_mant2[0],a
 266  002F              	fcall _builtin_holtek_dtdiv
 266  0036  0700     E  	mov a,_builtin_holtek_mant12p[0]
 266  0037  0080     R  	mov _chaosMath_2[7],a
 266  0038  0700     E  	mov a,_builtin_holtek_mant1[2]
 266  0039  0080     R  	mov _chaosMath_2[6],a
 266  003A  0700     E  	mov a,_builtin_holtek_mant1[1]
 266  003B  0080     R  	mov _chaosMath_2[5],a
 266  003C  0700     E  	mov a,_builtin_holtek_mant1[0]
 266  003D  0080     R  	mov _chaosMath_2[4],a
 266  003E  0700     R  	mov a,_chaosMath_2[6]
 266  003F  0500     R  	or a,_chaosMath_2[7]
 266  0040  0F80        	mov a,80h
 266  0041  390A        	snz z
 266  0042  0480     R  	xorm a,_chaosMath_2[7]
 266  0043  0700     R  	mov a,_chaosMath_2[4]
 266  0044  0080     R  	mov _g1[0],a
 266  0045  0700     R  	mov a,_chaosMath_2[5]
 266  0046  0080     R  	mov _g1[1],a
 266  0047  0700     R  	mov a,_chaosMath_2[6]
 266  0048  0080     R  	mov _g1[2],a
 266  0049  0700     R  	mov a,_chaosMath_2[7]
 266  004A  0080     R  	mov _g1[3],a
"File: chaosTest0731.c  Assembler  Version HGASM0202      Page 19

 267  004B              #line 267 "C:\Users\user1801\Desktop\HOLTEK\1070706\chaosTest0731\chaosTest0731.c"
 267  004B  0700     R  	mov a,_ax1[3]
 267  004C  0080     E  	mov _builtin_holtek_mant12p[0],a
 267  004D  0700     R  	mov a,_ax1[2]
 267  004E  0080     E  	mov _builtin_holtek_mant1[2],a
 267  004F  0700     R  	mov a,_ax1[1]
 267  0050  0080     E  	mov _builtin_holtek_mant1[1],a
 267  0051  0700     R  	mov a,_ax1[0]
 267  0052  0080     E  	mov _builtin_holtek_mant1[0],a
 267  0053  0700     R  	mov a,_ax1[3]
 267  0054  0080     E  	mov _builtin_holtek_mant12p[1],a
 267  0055  0700     R  	mov a,_ax1[2]
 267  0056  0080     E  	mov _builtin_holtek_mant2[2],a
 267  0057  0700     R  	mov a,_ax1[1]
 267  0058  0080     E  	mov _builtin_holtek_mant2[1],a
 267  0059  0700     R  	mov a,_ax1[0]
 267  005A  0080     E  	mov _builtin_holtek_mant2[0],a
 267  005B              	fcall _builtin_holtek_dtadd
 267  0062  0700     E  	mov a,_builtin_holtek_mant12p[0]
 267  0063  0080     R  	mov _chaosMath_2[15],a
 267  0064  0700     E  	mov a,_builtin_holtek_mant1[2]
 267  0065  0080     R  	mov _chaosMath_2[14],a
 267  0066  0700     E  	mov a,_builtin_holtek_mant1[1]
 267  0067  0080     R  	mov _chaosMath_2[13],a
 267  0068  0700     E  	mov a,_builtin_holtek_mant1[0]
 267  0069  0080     R  	mov _chaosMath_2[12],a
 267  006A  0700     R  	mov a,_chaosMath_2[15]
 267  006B  0080     E  	mov _builtin_holtek_mant12p[0],a
 267  006C  0700     R  	mov a,_chaosMath_2[14]
 267  006D  0080     E  	mov _builtin_holtek_mant1[2],a
 267  006E  0700     R  	mov a,_chaosMath_2[13]
 267  006F  0080     E  	mov _builtin_holtek_mant1[1],a
 267  0070  0700     R  	mov a,_chaosMath_2[12]
 267  0071  0080     E  	mov _builtin_holtek_mant1[0],a
 267  0072  0700     R  	mov a,_dx2[3]
 267  0073  0080     E  	mov _builtin_holtek_mant12p[1],a
 267  0074  0700     R  	mov a,_dx2[2]
 267  0075  0080     E  	mov _builtin_holtek_mant2[2],a
 267  0076  0700     R  	mov a,_dx2[1]
 267  0077  0080     E  	mov _builtin_holtek_mant2[1],a
 267  0078  0700     R  	mov a,_dx2[0]
 267  0079  0080     E  	mov _builtin_holtek_mant2[0],a
 267  007A              	fcall _builtin_holtek_dtmul
 267  0081  0700     E  	mov a,_builtin_holtek_mant12p[0]
 267  0082  0080     R  	mov _chaosMath_2[15],a
 267  0083  0700     E  	mov a,_builtin_holtek_mant1[2]
 267  0084  0080     R  	mov _chaosMath_2[14],a
 267  0085  0700     E  	mov a,_builtin_holtek_mant1[1]
 267  0086  0080     R  	mov _chaosMath_2[13],a
 267  0087  0700     E  	mov a,_builtin_holtek_mant1[0]
 267  0088  0080     R  	mov _chaosMath_2[12],a
 267  0089  0700     R  	mov a,_chaosMath_2[15]
 267  008A  0080     E  	mov _builtin_holtek_mant12p[0],a
 267  008B  0700     R  	mov a,_chaosMath_2[14]
 267  008C  0080     E  	mov _builtin_holtek_mant1[2],a
 267  008D  0700     R  	mov a,_chaosMath_2[13]
 267  008E  0080     E  	mov _builtin_holtek_mant1[1],a
 267  008F  0700     R  	mov a,_chaosMath_2[12]
 267  0090  0080     E  	mov _builtin_holtek_mant1[0],a
 267  0091  0700     E  	mov a,rg
"File: chaosTest0731.c  Assembler  Version HGASM0202      Page 20

 267  0092  0080     E  	mov _builtin_holtek_mant12p[1],a
 267  0093  0700     E  	mov a,rf
 267  0094  0080     E  	mov _builtin_holtek_mant2[2],a
 267  0095  0700     E  	mov a,re
 267  0096  0080     E  	mov _builtin_holtek_mant2[1],a
 267  0097  0700     E  	mov a,rd
 267  0098  0080     E  	mov _builtin_holtek_mant2[0],a
 267  0099              	fcall _builtin_holtek_dtdiv
 267  00A0  0700     E  	mov a,_builtin_holtek_mant12p[0]
 267  00A1  0080     R  	mov _chaosMath_2[31],a
 267  00A2  0700     E  	mov a,_builtin_holtek_mant1[2]
 267  00A3  0080     R  	mov _chaosMath_2[30],a
 267  00A4  0700     E  	mov a,_builtin_holtek_mant1[1]
 267  00A5  0080     R  	mov _chaosMath_2[29],a
 267  00A6  0700     E  	mov a,_builtin_holtek_mant1[0]
 267  00A7  0080     R  	mov _chaosMath_2[28],a
 267  00A8  0700     R  	mov a,_chaosMath_2[28]
 267  00A9  0080     R  	mov _g2[0],a
 267  00AA  0700     R  	mov a,_chaosMath_2[29]
 267  00AB  0080     R  	mov _g2[1],a
 267  00AC  0700     R  	mov a,_chaosMath_2[30]
 267  00AD  0080     R  	mov _g2[2],a
 267  00AE  0700     R  	mov a,_chaosMath_2[31]
 267  00AF  0080     R  	mov _g2[3],a
 268  00B0              #line 268 "C:\Users\user1801\Desktop\HOLTEK\1070706\chaosTest0731\chaosTest0731.c"
 268  00B0  0700     R  	mov a,_ax1[3]
 268  00B1  0080     E  	mov _builtin_holtek_mant12p[0],a
 268  00B2  0700     R  	mov a,_ax1[2]
 268  00B3  0080     E  	mov _builtin_holtek_mant1[2],a
 268  00B4  0700     R  	mov a,_ax1[1]
 268  00B5  0080     E  	mov _builtin_holtek_mant1[1],a
 268  00B6  0700     R  	mov a,_ax1[0]
 268  00B7  0080     E  	mov _builtin_holtek_mant1[0],a
 268  00B8  0FBD        	mov a,189
 268  00B9  0080     E  	mov _builtin_holtek_mant12p[1],a
 268  00BA  0FCC        	mov a,204
 268  00BB  0080     E  	mov _builtin_holtek_mant2[2],a
 268  00BC  0FCC        	mov a,204
 268  00BD  0080     E  	mov _builtin_holtek_mant2[1],a
 268  00BE  0FCD        	mov a,205
 268  00BF  0080     E  	mov _builtin_holtek_mant2[0],a
 268  00C0              	fcall _builtin_holtek_dtmul
 268  00C7  0700     E  	mov a,_builtin_holtek_mant12p[0]
 268  00C8  0080     R  	mov _chaosMath_2[19],a
 268  00C9  0700     E  	mov a,_builtin_holtek_mant1[2]
 268  00CA  0080     R  	mov _chaosMath_2[18],a
 268  00CB  0700     E  	mov a,_builtin_holtek_mant1[1]
 268  00CC  0080     R  	mov _chaosMath_2[17],a
 268  00CD  0700     E  	mov a,_builtin_holtek_mant1[0]
 268  00CE  0080     R  	mov _chaosMath_2[16],a
 268  00CF  0700     R  	mov a,_chaosMath_2[19]
 268  00D0  0080     E  	mov _builtin_holtek_mant12p[0],a
 268  00D1  0700     R  	mov a,_chaosMath_2[18]
 268  00D2  0080     E  	mov _builtin_holtek_mant1[2],a
 268  00D3  0700     R  	mov a,_chaosMath_2[17]
 268  00D4  0080     E  	mov _builtin_holtek_mant1[1],a
 268  00D5  0700     R  	mov a,_chaosMath_2[16]
 268  00D6  0080     E  	mov _builtin_holtek_mant1[0],a
 268  00D7  0700     R  	mov a,_ax3[3]
 268  00D8  0080     E  	mov _builtin_holtek_mant12p[1],a
"File: chaosTest0731.c  Assembler  Version HGASM0202      Page 21

 268  00D9  0700     R  	mov a,_ax3[2]
 268  00DA  0080     E  	mov _builtin_holtek_mant2[2],a
 268  00DB  0700     R  	mov a,_ax3[1]
 268  00DC  0080     E  	mov _builtin_holtek_mant2[1],a
 268  00DD  0700     R  	mov a,_ax3[0]
 268  00DE  0080     E  	mov _builtin_holtek_mant2[0],a
 268  00DF              	fcall _builtin_holtek_dtdiv
 268  00E6  0700     E  	mov a,_builtin_holtek_mant12p[0]
 268  00E7  0080     R  	mov _chaosMath_2[35],a
 268  00E8  0700     E  	mov a,_builtin_holtek_mant1[2]
 268  00E9  0080     R  	mov _chaosMath_2[34],a
 268  00EA  0700     E  	mov a,_builtin_holtek_mant1[1]
 268  00EB  0080     R  	mov _chaosMath_2[33],a
 268  00EC  0700     E  	mov a,_builtin_holtek_mant1[0]
 268  00ED  0080     R  	mov _chaosMath_2[32],a
 268  00EE  0700     R  	mov a,_chaosMath_2[32]
 268  00EF  0080     R  	mov _g3[0],a
 268  00F0  0700     R  	mov a,_chaosMath_2[33]
 268  00F1  0080     R  	mov _g3[1],a
 268  00F2  0700     R  	mov a,_chaosMath_2[34]
 268  00F3  0080     R  	mov _g3[2],a
 268  00F4  0700     R  	mov a,_chaosMath_2[35]
 268  00F5  0080     R  	mov _g3[3],a
 269  00F6              #line 269 "C:\Users\user1801\Desktop\HOLTEK\1070706\chaosTest0731\chaosTest0731.c"
 269  00F6  0700     R  	mov a,_dx2[3]
 269  00F7  0080     E  	mov _builtin_holtek_mant12p[0],a
 269  00F8  0700     R  	mov a,_dx2[2]
 269  00F9  0080     E  	mov _builtin_holtek_mant1[2],a
 269  00FA  0700     R  	mov a,_dx2[1]
 269  00FB  0080     E  	mov _builtin_holtek_mant1[1],a
 269  00FC  0700     R  	mov a,_dx2[0]
 269  00FD  0080     E  	mov _builtin_holtek_mant1[0],a
 269  00FE  0700     R  	mov a,_dx2[3]
 269  00FF  0080     E  	mov _builtin_holtek_mant12p[1],a
 269  0100  0700     R  	mov a,_dx2[2]
 269  0101  0080     E  	mov _builtin_holtek_mant2[2],a
 269  0102  0700     R  	mov a,_dx2[1]
 269  0103  0080     E  	mov _builtin_holtek_mant2[1],a
 269  0104  0700     R  	mov a,_dx2[0]
 269  0105  0080     E  	mov _builtin_holtek_mant2[0],a
 269  0106              	fcall _builtin_holtek_dtmul
 269  010D  0700     E  	mov a,_builtin_holtek_mant12p[0]
 269  010E  0080     R  	mov _chaosMath_2[19],a
 269  010F  0700     E  	mov a,_builtin_holtek_mant1[2]
 269  0110  0080     R  	mov _chaosMath_2[18],a
 269  0111  0700     E  	mov a,_builtin_holtek_mant1[1]
 269  0112  0080     R  	mov _chaosMath_2[17],a
 269  0113  0700     E  	mov a,_builtin_holtek_mant1[0]
 269  0114  0080     R  	mov _chaosMath_2[16],a
 269  0115  0700     R  	mov a,_chaosMath_2[19]
 269  0116  0080     E  	mov _builtin_holtek_mant12p[0],a
 269  0117  0700     R  	mov a,_chaosMath_2[18]
 269  0118  0080     E  	mov _builtin_holtek_mant1[2],a
 269  0119  0700     R  	mov a,_chaosMath_2[17]
 269  011A  0080     E  	mov _builtin_holtek_mant1[1],a
 269  011B  0700     R  	mov a,_chaosMath_2[16]
 269  011C  0080     E  	mov _builtin_holtek_mant1[0],a
 269  011D  0700     E  	mov a,rg
 269  011E  0080     E  	mov _builtin_holtek_mant12p[1],a
 269  011F  0700     E  	mov a,rf
"File: chaosTest0731.c  Assembler  Version HGASM0202      Page 22

 269  0120  0080     E  	mov _builtin_holtek_mant2[2],a
 269  0121  0700     E  	mov a,re
 269  0122  0080     E  	mov _builtin_holtek_mant2[1],a
 269  0123  0700     E  	mov a,rd
 269  0124  0080     E  	mov _builtin_holtek_mant2[0],a
 269  0125              	fcall _builtin_holtek_dtdiv
 269  012C  0700     E  	mov a,_builtin_holtek_mant12p[0]
 269  012D  0080     E  	mov rh,a
 269  012E  0700     E  	mov a,_builtin_holtek_mant1[2]
 269  012F  0080     E  	mov rg,a
 269  0130  0700     E  	mov a,_builtin_holtek_mant1[1]
 269  0131  0080     E  	mov rf,a
 269  0132  0700     E  	mov a,_builtin_holtek_mant1[0]
 269  0133  0080     E  	mov re,a
 269  0134  0FAE        	mov a,-82
 269  0135  0080     E  	mov ra,a
 269  0136  0F47        	mov a,71
 269  0137  0080     E  	mov rb,a
 269  0138  0FE1        	mov a,-31
 269  0139  0080     E  	mov rc,a
 269  013A  0F3F        	mov a,63
 269  013B  0080     E  	mov rd,a
 269  013C  0700     E  	mov a,rd
 269  013D  0080     E  	mov _builtin_holtek_mant12p[0],a
 269  013E  0700     E  	mov a,rc
 269  013F  0080     E  	mov _builtin_holtek_mant1[2],a
 269  0140  0700     E  	mov a,rb
 269  0141  0080     E  	mov _builtin_holtek_mant1[1],a
 269  0142  0700     E  	mov a,ra
 269  0143  0080     E  	mov _builtin_holtek_mant1[0],a
 269  0144  0700     E  	mov a,rh
 269  0145  0080     E  	mov _builtin_holtek_mant12p[1],a
 269  0146  0700     E  	mov a,rg
 269  0147  0080     E  	mov _builtin_holtek_mant2[2],a
 269  0148  0700     E  	mov a,rf
 269  0149  0080     E  	mov _builtin_holtek_mant2[1],a
 269  014A  0700     E  	mov a,re
 269  014B  0080     E  	mov _builtin_holtek_mant2[0],a
 269  014C              	fcall _builtin_holtek_dtsub
 269  0153  0700     E  	mov a,_builtin_holtek_mant12p[0]
 269  0154  0080     R  	mov _chaosMath_2[19],a
 269  0155  0700     E  	mov a,_builtin_holtek_mant1[2]
 269  0156  0080     R  	mov _chaosMath_2[18],a
 269  0157  0700     E  	mov a,_builtin_holtek_mant1[1]
 269  0158  0080     R  	mov _chaosMath_2[17],a
 269  0159  0700     E  	mov a,_builtin_holtek_mant1[0]
 269  015A  0080     R  	mov _chaosMath_2[16],a
 269  015B  0700     R  	mov a,_ax1[3]
 269  015C  0080     E  	mov _builtin_holtek_mant12p[0],a
 269  015D  0700     R  	mov a,_ax1[2]
 269  015E  0080     E  	mov _builtin_holtek_mant1[2],a
 269  015F  0700     R  	mov a,_ax1[1]
 269  0160  0080     E  	mov _builtin_holtek_mant1[1],a
 269  0161  0700     R  	mov a,_ax1[0]
 269  0162  0080     E  	mov _builtin_holtek_mant1[0],a
 269  0163  0F3D        	mov a,61
 269  0164  0080     E  	mov _builtin_holtek_mant12p[1],a
 269  0165  0FCC        	mov a,204
 269  0166  0080     E  	mov _builtin_holtek_mant2[2],a
 269  0167  0FCC        	mov a,204
"File: chaosTest0731.c  Assembler  Version HGASM0202      Page 23

 269  0168  0080     E  	mov _builtin_holtek_mant2[1],a
 269  0169  0FCD        	mov a,205
 269  016A  0080     E  	mov _builtin_holtek_mant2[0],a
 269  016B              	fcall _builtin_holtek_dtmul
 269  0172  0700     E  	mov a,_builtin_holtek_mant12p[0]
 269  0173  0080     E  	mov rg,a
 269  0174  0700     E  	mov a,_builtin_holtek_mant1[2]
 269  0175  0080     E  	mov rf,a
 269  0176  0700     E  	mov a,_builtin_holtek_mant1[1]
 269  0177  0080     E  	mov re,a
 269  0178  0700     E  	mov a,_builtin_holtek_mant1[0]
 269  0179  0080     E  	mov rd,a
 269  017A  0700     E  	mov a,rg
 269  017B  0080     E  	mov _builtin_holtek_mant12p[0],a
 269  017C  0700     E  	mov a,rf
 269  017D  0080     E  	mov _builtin_holtek_mant1[2],a
 269  017E  0700     E  	mov a,re
 269  017F  0080     E  	mov _builtin_holtek_mant1[1],a
 269  0180  0700     E  	mov a,rd
 269  0181  0080     E  	mov _builtin_holtek_mant1[0],a
 269  0182  0700     R  	mov a,_dx3[3]
 269  0183  0080     E  	mov _builtin_holtek_mant12p[1],a
 269  0184  0700     R  	mov a,_dx3[2]
 269  0185  0080     E  	mov _builtin_holtek_mant2[2],a
 269  0186  0700     R  	mov a,_dx3[1]
 269  0187  0080     E  	mov _builtin_holtek_mant2[1],a
 269  0188  0700     R  	mov a,_dx3[0]
 269  0189  0080     E  	mov _builtin_holtek_mant2[0],a
 269  018A              	fcall _builtin_holtek_dtmul
 269  0191  0700     E  	mov a,_builtin_holtek_mant12p[0]
 269  0192  0080     E  	mov rg,a
 269  0193  0700     E  	mov a,_builtin_holtek_mant1[2]
 269  0194  0080     E  	mov rf,a
 269  0195  0700     E  	mov a,_builtin_holtek_mant1[1]
 269  0196  0080     E  	mov re,a
 269  0197  0700     E  	mov a,_builtin_holtek_mant1[0]
 269  0198  0080     E  	mov rd,a
 269  0199  0700     E  	mov a,rg
 269  019A  0080     E  	mov _builtin_holtek_mant12p[0],a
 269  019B  0700     E  	mov a,rf
 269  019C  0080     E  	mov _builtin_holtek_mant1[2],a
 269  019D  0700     E  	mov a,re
 269  019E  0080     E  	mov _builtin_holtek_mant1[1],a
 269  019F  0700     E  	mov a,rd
 269  01A0  0080     E  	mov _builtin_holtek_mant1[0],a
 269  01A1  0700     R  	mov a,_ax3[3]
 269  01A2  0080     E  	mov _builtin_holtek_mant12p[1],a
 269  01A3  0700     R  	mov a,_ax3[2]
 269  01A4  0080     E  	mov _builtin_holtek_mant2[2],a
 269  01A5  0700     R  	mov a,_ax3[1]
 269  01A6  0080     E  	mov _builtin_holtek_mant2[1],a
 269  01A7  0700     R  	mov a,_ax3[0]
 269  01A8  0080     E  	mov _builtin_holtek_mant2[0],a
 269  01A9              	fcall _builtin_holtek_dtdiv
 269  01B0  0700     E  	mov a,_builtin_holtek_mant12p[0]
 269  01B1  0080     E  	mov rg,a
 269  01B2  0700     E  	mov a,_builtin_holtek_mant1[2]
 269  01B3  0080     E  	mov rf,a
 269  01B4  0700     E  	mov a,_builtin_holtek_mant1[1]
 269  01B5  0080     E  	mov re,a
"File: chaosTest0731.c  Assembler  Version HGASM0202      Page 24

 269  01B6  0700     E  	mov a,_builtin_holtek_mant1[0]
 269  01B7  0080     E  	mov rd,a
 269  01B8  0700     R  	mov a,_chaosMath_2[19]
 269  01B9  0080     E  	mov _builtin_holtek_mant12p[0],a
 269  01BA  0700     R  	mov a,_chaosMath_2[18]
 269  01BB  0080     E  	mov _builtin_holtek_mant1[2],a
 269  01BC  0700     R  	mov a,_chaosMath_2[17]
 269  01BD  0080     E  	mov _builtin_holtek_mant1[1],a
 269  01BE  0700     R  	mov a,_chaosMath_2[16]
 269  01BF  0080     E  	mov _builtin_holtek_mant1[0],a
 269  01C0  0700     E  	mov a,rg
 269  01C1  0080     E  	mov _builtin_holtek_mant12p[1],a
 269  01C2  0700     E  	mov a,rf
 269  01C3  0080     E  	mov _builtin_holtek_mant2[2],a
 269  01C4  0700     E  	mov a,re
 269  01C5  0080     E  	mov _builtin_holtek_mant2[1],a
 269  01C6  0700     E  	mov a,rd
 269  01C7  0080     E  	mov _builtin_holtek_mant2[0],a
 269  01C8              	fcall _builtin_holtek_dtadd
 269  01CF  0700     E  	mov a,_builtin_holtek_mant12p[0]
 269  01D0  0080     E  	mov rg,a
 269  01D1  0700     E  	mov a,_builtin_holtek_mant1[2]
 269  01D2  0080     E  	mov rf,a
 269  01D3  0700     E  	mov a,_builtin_holtek_mant1[1]
 269  01D4  0080     E  	mov re,a
 269  01D5  0700     E  	mov a,_builtin_holtek_mant1[0]
 269  01D6  0080     E  	mov rd,a
 269  01D7  0700     R  	mov a,_ax1[3]
 269  01D8  0080     E  	mov _builtin_holtek_mant12p[0],a
 269  01D9  0700     R  	mov a,_ax1[2]
 269  01DA  0080     E  	mov _builtin_holtek_mant1[2],a
 269  01DB  0700     R  	mov a,_ax1[1]
 269  01DC  0080     E  	mov _builtin_holtek_mant1[1],a
 269  01DD  0700     R  	mov a,_ax1[0]
 269  01DE  0080     E  	mov _builtin_holtek_mant1[0],a
 269  01DF  0700     E  	mov a,rg
 269  01E0  0080     E  	mov _builtin_holtek_mant12p[1],a
 269  01E1  0700     E  	mov a,rf
 269  01E2  0080     E  	mov _builtin_holtek_mant2[2],a
 269  01E3  0700     E  	mov a,re
 269  01E4  0080     E  	mov _builtin_holtek_mant2[1],a
 269  01E5  0700     E  	mov a,rd
 269  01E6  0080     E  	mov _builtin_holtek_mant2[0],a
 269  01E7              	fcall _builtin_holtek_dtmul
 269  01EE  0700     E  	mov a,_builtin_holtek_mant12p[0]
 269  01EF  0080     E  	mov rg,a
 269  01F0  0700     E  	mov a,_builtin_holtek_mant1[2]
 269  01F1  0080     E  	mov rf,a
 269  01F2  0700     E  	mov a,_builtin_holtek_mant1[1]
 269  01F3  0080     E  	mov re,a
 269  01F4  0700     E  	mov a,_builtin_holtek_mant1[0]
 269  01F5  0080     E  	mov rd,a
 269  01F6  0700     E  	mov a,rg
 269  01F7  0080     E  	mov _builtin_holtek_mant12p[0],a
 269  01F8  0700     E  	mov a,rf
 269  01F9  0080     E  	mov _builtin_holtek_mant1[2],a
 269  01FA  0700     E  	mov a,re
 269  01FB  0080     E  	mov _builtin_holtek_mant1[1],a
 269  01FC  0700     E  	mov a,rd
 269  01FD  0080     E  	mov _builtin_holtek_mant1[0],a
"File: chaosTest0731.c  Assembler  Version HGASM0202      Page 25

 269  01FE  0700     R  	mov a,_dx1[3]
 269  01FF  0080     E  	mov _builtin_holtek_mant12p[1],a
 269  0200  0700     R  	mov a,_dx1[2]
 269  0201  0080     E  	mov _builtin_holtek_mant2[2],a
 269  0202  0700     R  	mov a,_dx1[1]
 269  0203  0080     E  	mov _builtin_holtek_mant2[1],a
 269  0204  0700     R  	mov a,_dx1[0]
 269  0205  0080     E  	mov _builtin_holtek_mant2[0],a
 269  0206              	fcall _builtin_holtek_dtadd
 269  020D  0700     E  	mov a,_builtin_holtek_mant12p[0]
 269  020E  0080     R  	mov _chaosMath_2[43],a
 269  020F  0700     E  	mov a,_builtin_holtek_mant1[2]
 269  0210  0080     R  	mov _chaosMath_2[42],a
 269  0211  0700     E  	mov a,_builtin_holtek_mant1[1]
 269  0212  0080     R  	mov _chaosMath_2[41],a
 269  0213  0700     E  	mov a,_builtin_holtek_mant1[0]
 269  0214  0080     R  	mov _chaosMath_2[40],a
 269  0215  0700     R  	mov a,_chaosMath_2[40]
 269  0216  0080     R  	mov _g4[0],a
 269  0217  0700     R  	mov a,_chaosMath_2[41]
 269  0218  0080     R  	mov _g4[1],a
 269  0219  0700     R  	mov a,_chaosMath_2[42]
 269  021A  0080     R  	mov _g4[2],a
 269  021B  0700     R  	mov a,_chaosMath_2[43]
 269  021C  0080     R  	mov _g4[3],a
 271  021D              #line 271 "C:\Users\user1801\Desktop\HOLTEK\1070706\chaosTest0731\chaosTest0731.c"
 271  021D  0700     R  	mov a,_ax2[3]
 271  021E  0080     E  	mov _builtin_holtek_mant12p[0],a
 271  021F  0700     R  	mov a,_ax2[2]
 271  0220  0080     E  	mov _builtin_holtek_mant1[2],a
 271  0221  0700     R  	mov a,_ax2[1]
 271  0222  0080     E  	mov _builtin_holtek_mant1[1],a
 271  0223  0700     R  	mov a,_ax2[0]
 271  0224  0080     E  	mov _builtin_holtek_mant1[0],a
 271  0225  0700     R  	mov a,_ax1[3]
 271  0226  0080     E  	mov _builtin_holtek_mant12p[1],a
 271  0227  0700     R  	mov a,_ax1[2]
 271  0228  0080     E  	mov _builtin_holtek_mant2[2],a
 271  0229  0700     R  	mov a,_ax1[1]
 271  022A  0080     E  	mov _builtin_holtek_mant2[1],a
 271  022B  0700     R  	mov a,_ax1[0]
 271  022C  0080     E  	mov _builtin_holtek_mant2[0],a
 271  022D              	fcall _builtin_holtek_dtdiv
 271  0234  0700     E  	mov a,_builtin_holtek_mant12p[0]
 271  0235  0080     R  	mov _chaosMath_2[19],a
 271  0236  0700     E  	mov a,_builtin_holtek_mant1[2]
 271  0237  0080     R  	mov _chaosMath_2[18],a
 271  0238  0700     E  	mov a,_builtin_holtek_mant1[1]
 271  0239  0080     R  	mov _chaosMath_2[17],a
 271  023A  0700     E  	mov a,_builtin_holtek_mant1[0]
 271  023B  0080     R  	mov _chaosMath_2[16],a
 271  023C  0700     R  	mov a,_chaosMath_2[16]
 271  023D  0080     R  	mov _h1[0],a
 271  023E  0700     R  	mov a,_chaosMath_2[17]
 271  023F  0080     R  	mov _h1[1],a
 271  0240  0700     R  	mov a,_chaosMath_2[18]
 271  0241  0080     R  	mov _h1[2],a
 271  0242  0700     R  	mov a,_chaosMath_2[19]
 271  0243  0080     R  	mov _h1[3],a
 272  0244              #line 272 "C:\Users\user1801\Desktop\HOLTEK\1070706\chaosTest0731\chaosTest0731.c"
"File: chaosTest0731.c  Assembler  Version HGASM0202      Page 26

 272  0244  0700     R  	mov a,_ax2[3]
 272  0245  0080     E  	mov _builtin_holtek_mant12p[0],a
 272  0246  0700     R  	mov a,_ax2[2]
 272  0247  0080     E  	mov _builtin_holtek_mant1[2],a
 272  0248  0700     R  	mov a,_ax2[1]
 272  0249  0080     E  	mov _builtin_holtek_mant1[1],a
 272  024A  0700     R  	mov a,_ax2[0]
 272  024B  0080     E  	mov _builtin_holtek_mant1[0],a
 272  024C  0700     R  	mov a,_dx1[3]
 272  024D  0080     E  	mov _builtin_holtek_mant12p[1],a
 272  024E  0700     R  	mov a,_dx1[2]
 272  024F  0080     E  	mov _builtin_holtek_mant2[2],a
 272  0250  0700     R  	mov a,_dx1[1]
 272  0251  0080     E  	mov _builtin_holtek_mant2[1],a
 272  0252  0700     R  	mov a,_dx1[0]
 272  0253  0080     E  	mov _builtin_holtek_mant2[0],a
 272  0254              	fcall _builtin_holtek_dtmul
 272  025B  0700     E  	mov a,_builtin_holtek_mant12p[0]
 272  025C  0080     E  	mov rg,a
 272  025D  0700     E  	mov a,_builtin_holtek_mant1[2]
 272  025E  0080     E  	mov rf,a
 272  025F  0700     E  	mov a,_builtin_holtek_mant1[1]
 272  0260  0080     E  	mov re,a
 272  0261  0700     E  	mov a,_builtin_holtek_mant1[0]
 272  0262  0080     E  	mov rd,a
 272  0263  0700     E  	mov a,rf
 272  0264  0500     E  	or a,rg
 272  0265  0F80        	mov a,80h
 272  0266  390A        	snz z
 272  0267  0480     E  	xorm a,rg
 272  0268  0700     E  	mov a,rg
 272  0269  0080     E  	mov _builtin_holtek_mant12p[0],a
 272  026A  0700     E  	mov a,rf
 272  026B  0080     E  	mov _builtin_holtek_mant1[2],a
 272  026C  0700     E  	mov a,re
 272  026D  0080     E  	mov _builtin_holtek_mant1[1],a
 272  026E  0700     E  	mov a,rd
 272  026F  0080     E  	mov _builtin_holtek_mant1[0],a
 272  0270  0700     R  	mov a,_ax1[3]
 272  0271  0080     E  	mov _builtin_holtek_mant12p[1],a
 272  0272  0700     R  	mov a,_ax1[2]
 272  0273  0080     E  	mov _builtin_holtek_mant2[2],a
 272  0274  0700     R  	mov a,_ax1[1]
 272  0275  0080     E  	mov _builtin_holtek_mant2[1],a
 272  0276  0700     R  	mov a,_ax1[0]
 272  0277  0080     E  	mov _builtin_holtek_mant2[0],a
 272  0278              	fcall _builtin_holtek_dtdiv
 272  027F  0700     E  	mov a,_builtin_holtek_mant12p[0]
 272  0280  0080     E  	mov rg,a
 272  0281  0700     E  	mov a,_builtin_holtek_mant1[2]
 272  0282  0080     E  	mov rf,a
 272  0283  0700     E  	mov a,_builtin_holtek_mant1[1]
 272  0284  0080     E  	mov re,a
 272  0285  0700     E  	mov a,_builtin_holtek_mant1[0]
 272  0286  0080     E  	mov rd,a
 272  0287  0700     E  	mov a,rg
 272  0288  0080     E  	mov _builtin_holtek_mant12p[0],a
 272  0289  0700     E  	mov a,rf
 272  028A  0080     E  	mov _builtin_holtek_mant1[2],a
 272  028B  0700     E  	mov a,re
"File: chaosTest0731.c  Assembler  Version HGASM0202      Page 27

 272  028C  0080     E  	mov _builtin_holtek_mant1[1],a
 272  028D  0700     E  	mov a,rd
 272  028E  0080     E  	mov _builtin_holtek_mant1[0],a
 272  028F  0700     R  	mov a,_dx2[3]
 272  0290  0080     E  	mov _builtin_holtek_mant12p[1],a
 272  0291  0700     R  	mov a,_dx2[2]
 272  0292  0080     E  	mov _builtin_holtek_mant2[2],a
 272  0293  0700     R  	mov a,_dx2[1]
 272  0294  0080     E  	mov _builtin_holtek_mant2[1],a
 272  0295  0700     R  	mov a,_dx2[0]
 272  0296  0080     E  	mov _builtin_holtek_mant2[0],a
 272  0297              	fcall _builtin_holtek_dtadd
 272  029E  0700     E  	mov a,_builtin_holtek_mant12p[0]
 272  029F  0080     R  	mov _chaosMath_2[47],a
 272  02A0  0700     E  	mov a,_builtin_holtek_mant1[2]
 272  02A1  0080     R  	mov _chaosMath_2[46],a
 272  02A2  0700     E  	mov a,_builtin_holtek_mant1[1]
 272  02A3  0080     R  	mov _chaosMath_2[45],a
 272  02A4  0700     E  	mov a,_builtin_holtek_mant1[0]
 272  02A5  0080     R  	mov _chaosMath_2[44],a
 272  02A6  0700     R  	mov a,_chaosMath_2[44]
 272  02A7  0080     R  	mov _h2[0],a
 272  02A8  0700     R  	mov a,_chaosMath_2[45]
 272  02A9  0080     R  	mov _h2[1],a
 272  02AA  0700     R  	mov a,_chaosMath_2[46]
 272  02AB  0080     R  	mov _h2[2],a
 272  02AC  0700     R  	mov a,_chaosMath_2[47]
 272  02AD  0080     R  	mov _h2[3],a
 274  02AE              #line 274 "C:\Users\user1801\Desktop\HOLTEK\1070706\chaosTest0731\chaosTest0731.c"
 274  02AE  0700     R  	mov a,_ax3[3]
 274  02AF  0080     E  	mov _builtin_holtek_mant12p[0],a
 274  02B0  0700     R  	mov a,_ax3[2]
 274  02B1  0080     E  	mov _builtin_holtek_mant1[2],a
 274  02B2  0700     R  	mov a,_ax3[1]
 274  02B3  0080     E  	mov _builtin_holtek_mant1[1],a
 274  02B4  0700     R  	mov a,_ax3[0]
 274  02B5  0080     E  	mov _builtin_holtek_mant1[0],a
 274  02B6  0700     R  	mov a,_ax2[3]
 274  02B7  0080     E  	mov _builtin_holtek_mant12p[1],a
 274  02B8  0700     R  	mov a,_ax2[2]
 274  02B9  0080     E  	mov _builtin_holtek_mant2[2],a
 274  02BA  0700     R  	mov a,_ax2[1]
 274  02BB  0080     E  	mov _builtin_holtek_mant2[1],a
 274  02BC  0700     R  	mov a,_ax2[0]
 274  02BD  0080     E  	mov _builtin_holtek_mant2[0],a
 274  02BE              	fcall _builtin_holtek_dtdiv
 274  02C5  0700     E  	mov a,_builtin_holtek_mant12p[0]
 274  02C6  0080     R  	mov _chaosMath_2[27],a
 274  02C7  0700     E  	mov a,_builtin_holtek_mant1[2]
 274  02C8  0080     R  	mov _chaosMath_2[26],a
 274  02C9  0700     E  	mov a,_builtin_holtek_mant1[1]
 274  02CA  0080     R  	mov _chaosMath_2[25],a
 274  02CB  0700     E  	mov a,_builtin_holtek_mant1[0]
 274  02CC  0080     R  	mov _chaosMath_2[24],a
 274  02CD  0700     R  	mov a,_chaosMath_2[24]
 274  02CE  0080     R  	mov _j1[0],a
 274  02CF  0700     R  	mov a,_chaosMath_2[25]
 274  02D0  0080     R  	mov _j1[1],a
 274  02D1  0700     R  	mov a,_chaosMath_2[26]
 274  02D2  0080     R  	mov _j1[2],a
"File: chaosTest0731.c  Assembler  Version HGASM0202      Page 28

 274  02D3  0700     R  	mov a,_chaosMath_2[27]
 274  02D4  0080     R  	mov _j1[3],a
 275  02D5              #line 275 "C:\Users\user1801\Desktop\HOLTEK\1070706\chaosTest0731\chaosTest0731.c"
 275  02D5  0700     R  	mov a,_ax3[3]
 275  02D6  0080     E  	mov _builtin_holtek_mant12p[0],a
 275  02D7  0700     R  	mov a,_ax3[2]
 275  02D8  0080     E  	mov _builtin_holtek_mant1[2],a
 275  02D9  0700     R  	mov a,_ax3[1]
 275  02DA  0080     E  	mov _builtin_holtek_mant1[1],a
 275  02DB  0700     R  	mov a,_ax3[0]
 275  02DC  0080     E  	mov _builtin_holtek_mant1[0],a
 275  02DD  0700     R  	mov a,_dx2[3]
 275  02DE  0080     E  	mov _builtin_holtek_mant12p[1],a
 275  02DF  0700     R  	mov a,_dx2[2]
 275  02E0  0080     E  	mov _builtin_holtek_mant2[2],a
 275  02E1  0700     R  	mov a,_dx2[1]
 275  02E2  0080     E  	mov _builtin_holtek_mant2[1],a
 275  02E3  0700     R  	mov a,_dx2[0]
 275  02E4  0080     E  	mov _builtin_holtek_mant2[0],a
 275  02E5              	fcall _builtin_holtek_dtmul
 275  02EC  0700     E  	mov a,_builtin_holtek_mant12p[0]
 275  02ED  0080     E  	mov rg,a
 275  02EE  0700     E  	mov a,_builtin_holtek_mant1[2]
 275  02EF  0080     E  	mov rf,a
 275  02F0  0700     E  	mov a,_builtin_holtek_mant1[1]
 275  02F1  0080     E  	mov re,a
 275  02F2  0700     E  	mov a,_builtin_holtek_mant1[0]
 275  02F3  0080     E  	mov rd,a
 275  02F4  0700     E  	mov a,rf
 275  02F5  0500     E  	or a,rg
 275  02F6  0F80        	mov a,80h
 275  02F7  390A        	snz z
 275  02F8  0480     E  	xorm a,rg
 275  02F9  0700     E  	mov a,rg
 275  02FA  0080     E  	mov _builtin_holtek_mant12p[0],a
 275  02FB  0700     E  	mov a,rf
 275  02FC  0080     E  	mov _builtin_holtek_mant1[2],a
 275  02FD  0700     E  	mov a,re
 275  02FE  0080     E  	mov _builtin_holtek_mant1[1],a
 275  02FF  0700     E  	mov a,rd
 275  0300  0080     E  	mov _builtin_holtek_mant1[0],a
 275  0301  0700     R  	mov a,_ax2[3]
 275  0302  0080     E  	mov _builtin_holtek_mant12p[1],a
 275  0303  0700     R  	mov a,_ax2[2]
 275  0304  0080     E  	mov _builtin_holtek_mant2[2],a
 275  0305  0700     R  	mov a,_ax2[1]
 275  0306  0080     E  	mov _builtin_holtek_mant2[1],a
 275  0307  0700     R  	mov a,_ax2[0]
 275  0308  0080     E  	mov _builtin_holtek_mant2[0],a
 275  0309              	fcall _builtin_holtek_dtdiv
 275  0310  0700     E  	mov a,_builtin_holtek_mant12p[0]
 275  0311  0080     E  	mov rg,a
 275  0312  0700     E  	mov a,_builtin_holtek_mant1[2]
 275  0313  0080     E  	mov rf,a
 275  0314  0700     E  	mov a,_builtin_holtek_mant1[1]
 275  0315  0080     E  	mov re,a
 275  0316  0700     E  	mov a,_builtin_holtek_mant1[0]
 275  0317  0080     E  	mov rd,a
 275  0318  0700     E  	mov a,rg
 275  0319  0080     E  	mov _builtin_holtek_mant12p[0],a
"File: chaosTest0731.c  Assembler  Version HGASM0202      Page 29

 275  031A  0700     E  	mov a,rf
 275  031B  0080     E  	mov _builtin_holtek_mant1[2],a
 275  031C  0700     E  	mov a,re
 275  031D  0080     E  	mov _builtin_holtek_mant1[1],a
 275  031E  0700     E  	mov a,rd
 275  031F  0080     E  	mov _builtin_holtek_mant1[0],a
 275  0320  0700     R  	mov a,_dx3[3]
 275  0321  0080     E  	mov _builtin_holtek_mant12p[1],a
 275  0322  0700     R  	mov a,_dx3[2]
 275  0323  0080     E  	mov _builtin_holtek_mant2[2],a
 275  0324  0700     R  	mov a,_dx3[1]
 275  0325  0080     E  	mov _builtin_holtek_mant2[1],a
 275  0326  0700     R  	mov a,_dx3[0]
 275  0327  0080     E  	mov _builtin_holtek_mant2[0],a
 275  0328              	fcall _builtin_holtek_dtadd
 275  032F  0700     E  	mov a,_builtin_holtek_mant12p[0]
 275  0330  0080     R  	mov _chaosMath_2[15],a
 275  0331  0700     E  	mov a,_builtin_holtek_mant1[2]
 275  0332  0080     R  	mov _chaosMath_2[14],a
 275  0333  0700     E  	mov a,_builtin_holtek_mant1[1]
 275  0334  0080     R  	mov _chaosMath_2[13],a
 275  0335  0700     E  	mov a,_builtin_holtek_mant1[0]
 275  0336  0080     R  	mov _chaosMath_2[12],a
 275  0337  0700     R  	mov a,_chaosMath_2[12]
 275  0338  0080     R  	mov _j2[0],a
 275  0339  0700     R  	mov a,_chaosMath_2[13]
 275  033A  0080     R  	mov _j2[1],a
 275  033B  0700     R  	mov a,_chaosMath_2[14]
 275  033C  0080     R  	mov _j2[2],a
 275  033D  0700     R  	mov a,_chaosMath_2[15]
 275  033E  0080     R  	mov _j2[3],a
 282  033F              #line 282 "C:\Users\user1801\Desktop\HOLTEK\1070706\chaosTest0731\chaosTest0731.c"
 282  033F  0700     R  	mov a,_y2[3]
 282  0340  0080     E  	mov _builtin_holtek_mant12p[0],a
 282  0341  0700     R  	mov a,_y2[2]
 282  0342  0080     E  	mov _builtin_holtek_mant1[2],a
 282  0343  0700     R  	mov a,_y2[1]
 282  0344  0080     E  	mov _builtin_holtek_mant1[1],a
 282  0345  0700     R  	mov a,_y2[0]
 282  0346  0080     E  	mov _builtin_holtek_mant1[0],a
 282  0347  0700     R  	mov a,_chaosMath_2[31]
 282  0348  0080     E  	mov _builtin_holtek_mant12p[1],a
 282  0349  0700     R  	mov a,_chaosMath_2[30]
 282  034A  0080     E  	mov _builtin_holtek_mant2[2],a
 282  034B  0700     R  	mov a,_chaosMath_2[29]
 282  034C  0080     E  	mov _builtin_holtek_mant2[1],a
 282  034D  0700     R  	mov a,_chaosMath_2[28]
 282  034E  0080     E  	mov _builtin_holtek_mant2[0],a
 282  034F              	fcall _builtin_holtek_dtmul
 282  0356  0700     E  	mov a,_builtin_holtek_mant12p[0]
 282  0357  0080     R  	mov _chaosMath_2[31],a
 282  0358  0700     E  	mov a,_builtin_holtek_mant1[2]
 282  0359  0080     R  	mov _chaosMath_2[30],a
 282  035A  0700     E  	mov a,_builtin_holtek_mant1[1]
 282  035B  0080     R  	mov _chaosMath_2[29],a
 282  035C  0700     E  	mov a,_builtin_holtek_mant1[0]
 282  035D  0080     R  	mov _chaosMath_2[28],a
 282  035E  0700     R  	mov a,_y3[3]
 282  035F  0080     E  	mov _builtin_holtek_mant12p[0],a
 282  0360  0700     R  	mov a,_y3[2]
"File: chaosTest0731.c  Assembler  Version HGASM0202      Page 30

 282  0361  0080     E  	mov _builtin_holtek_mant1[2],a
 282  0362  0700     R  	mov a,_y3[1]
 282  0363  0080     E  	mov _builtin_holtek_mant1[1],a
 282  0364  0700     R  	mov a,_y3[0]
 282  0365  0080     E  	mov _builtin_holtek_mant1[0],a
 282  0366  0700     R  	mov a,_chaosMath_2[35]
 282  0367  0080     E  	mov _builtin_holtek_mant12p[1],a
 282  0368  0700     R  	mov a,_chaosMath_2[34]
 282  0369  0080     E  	mov _builtin_holtek_mant2[2],a
 282  036A  0700     R  	mov a,_chaosMath_2[33]
 282  036B  0080     E  	mov _builtin_holtek_mant2[1],a
 282  036C  0700     R  	mov a,_chaosMath_2[32]
 282  036D  0080     E  	mov _builtin_holtek_mant2[0],a
 282  036E              	fcall _builtin_holtek_dtmul
 282  0375  0700     E  	mov a,_builtin_holtek_mant12p[0]
 282  0376  0080     R  	mov _chaosMath_2[35],a
 282  0377  0700     E  	mov a,_builtin_holtek_mant1[2]
 282  0378  0080     R  	mov _chaosMath_2[34],a
 282  0379  0700     E  	mov a,_builtin_holtek_mant1[1]
 282  037A  0080     R  	mov _chaosMath_2[33],a
 282  037B  0700     E  	mov a,_builtin_holtek_mant1[0]
 282  037C  0080     R  	mov _chaosMath_2[32],a
 282  037D  0700     R  	mov a,_y2[3]
 282  037E  0080     E  	mov _builtin_holtek_mant12p[0],a
 282  037F  0700     R  	mov a,_y2[2]
 282  0380  0080     E  	mov _builtin_holtek_mant1[2],a
 282  0381  0700     R  	mov a,_y2[1]
 282  0382  0080     E  	mov _builtin_holtek_mant1[1],a
 282  0383  0700     R  	mov a,_y2[0]
 282  0384  0080     E  	mov _builtin_holtek_mant1[0],a
 282  0385  0700     R  	mov a,_y2[3]
 282  0386  0080     E  	mov _builtin_holtek_mant12p[1],a
 282  0387  0700     R  	mov a,_y2[2]
 282  0388  0080     E  	mov _builtin_holtek_mant2[2],a
 282  0389  0700     R  	mov a,_y2[1]
 282  038A  0080     E  	mov _builtin_holtek_mant2[1],a
 282  038B  0700     R  	mov a,_y2[0]
 282  038C  0080     E  	mov _builtin_holtek_mant2[0],a
 282  038D              	fcall _builtin_holtek_dtmul
 282  0394  0700     E  	mov a,_builtin_holtek_mant12p[0]
 282  0395  0080     E  	mov rg,a
 282  0396  0700     E  	mov a,_builtin_holtek_mant1[2]
 282  0397  0080     E  	mov rf,a
 282  0398  0700     E  	mov a,_builtin_holtek_mant1[1]
 282  0399  0080     E  	mov re,a
 282  039A  0700     E  	mov a,_builtin_holtek_mant1[0]
 282  039B  0080     E  	mov rd,a
 282  039C  0700     E  	mov a,rf
 282  039D  0500     E  	or a,rg
 282  039E  0F80        	mov a,80h
 282  039F  390A        	snz z
 282  03A0  0480     E  	xorm a,rg
 282  03A1  0700     E  	mov a,rg
 282  03A2  0080     E  	mov _builtin_holtek_mant12p[0],a
 282  03A3  0700     E  	mov a,rf
 282  03A4  0080     E  	mov _builtin_holtek_mant1[2],a
 282  03A5  0700     E  	mov a,re
 282  03A6  0080     E  	mov _builtin_holtek_mant1[1],a
 282  03A7  0700     E  	mov a,rd
 282  03A8  0080     E  	mov _builtin_holtek_mant1[0],a
"File: chaosTest0731.c  Assembler  Version HGASM0202      Page 31

 282  03A9  0700     R  	mov a,_chaosMath_2[7]
 282  03AA  0080     E  	mov _builtin_holtek_mant12p[1],a
 282  03AB  0700     R  	mov a,_chaosMath_2[6]
 282  03AC  0080     E  	mov _builtin_holtek_mant2[2],a
 282  03AD  0700     R  	mov a,_chaosMath_2[5]
 282  03AE  0080     E  	mov _builtin_holtek_mant2[1],a
 282  03AF  0700     R  	mov a,_chaosMath_2[4]
 282  03B0  0080     E  	mov _builtin_holtek_mant2[0],a
 282  03B1              	fcall _builtin_holtek_dtmul
 282  03B8  0700     E  	mov a,_builtin_holtek_mant12p[0]
 282  03B9  0080     E  	mov rg,a
 282  03BA  0700     E  	mov a,_builtin_holtek_mant1[2]
 282  03BB  0080     E  	mov rf,a
 282  03BC  0700     E  	mov a,_builtin_holtek_mant1[1]
 282  03BD  0080     E  	mov re,a
 282  03BE  0700     E  	mov a,_builtin_holtek_mant1[0]
 282  03BF  0080     E  	mov rd,a
 282  03C0  0700     E  	mov a,rg
 282  03C1  0080     E  	mov _builtin_holtek_mant12p[0],a
 282  03C2  0700     E  	mov a,rf
 282  03C3  0080     E  	mov _builtin_holtek_mant1[2],a
 282  03C4  0700     E  	mov a,re
 282  03C5  0080     E  	mov _builtin_holtek_mant1[1],a
 282  03C6  0700     E  	mov a,rd
 282  03C7  0080     E  	mov _builtin_holtek_mant1[0],a
 282  03C8  0700     R  	mov a,_chaosMath_2[31]
 282  03C9  0080     E  	mov _builtin_holtek_mant12p[1],a
 282  03CA  0700     R  	mov a,_chaosMath_2[30]
 282  03CB  0080     E  	mov _builtin_holtek_mant2[2],a
 282  03CC  0700     R  	mov a,_chaosMath_2[29]
 282  03CD  0080     E  	mov _builtin_holtek_mant2[1],a
 282  03CE  0700     R  	mov a,_chaosMath_2[28]
 282  03CF  0080     E  	mov _builtin_holtek_mant2[0],a
 282  03D0              	fcall _builtin_holtek_dtsub
 282  03D7  0700     E  	mov a,_builtin_holtek_mant12p[0]
 282  03D8  0080     E  	mov rg,a
 282  03D9  0700     E  	mov a,_builtin_holtek_mant1[2]
 282  03DA  0080     E  	mov rf,a
 282  03DB  0700     E  	mov a,_builtin_holtek_mant1[1]
 282  03DC  0080     E  	mov re,a
 282  03DD  0700     E  	mov a,_builtin_holtek_mant1[0]
 282  03DE  0080     E  	mov rd,a
 282  03DF  0700     E  	mov a,rg
 282  03E0  0080     E  	mov _builtin_holtek_mant12p[0],a
 282  03E1  0700     E  	mov a,rf
 282  03E2  0080     E  	mov _builtin_holtek_mant1[2],a
 282  03E3  0700     E  	mov a,re
 282  03E4  0080     E  	mov _builtin_holtek_mant1[1],a
 282  03E5  0700     E  	mov a,rd
 282  03E6  0080     E  	mov _builtin_holtek_mant1[0],a
 282  03E7  0700     R  	mov a,_chaosMath_2[35]
 282  03E8  0080     E  	mov _builtin_holtek_mant12p[1],a
 282  03E9  0700     R  	mov a,_chaosMath_2[34]
 282  03EA  0080     E  	mov _builtin_holtek_mant2[2],a
 282  03EB  0700     R  	mov a,_chaosMath_2[33]
 282  03EC  0080     E  	mov _builtin_holtek_mant2[1],a
 282  03ED  0700     R  	mov a,_chaosMath_2[32]
 282  03EE  0080     E  	mov _builtin_holtek_mant2[0],a
 282  03EF              	fcall _builtin_holtek_dtsub
 282  03F6  0700     E  	mov a,_builtin_holtek_mant12p[0]
"File: chaosTest0731.c  Assembler  Version HGASM0202      Page 32

 282  03F7  0080     R  	mov _chaosMath_2[23],a
 282  03F8  0700     E  	mov a,_builtin_holtek_mant1[2]
 282  03F9  0080     R  	mov _chaosMath_2[22],a
 282  03FA  0700     E  	mov a,_builtin_holtek_mant1[1]
 282  03FB  0080     R  	mov _chaosMath_2[21],a
 282  03FC  0700     E  	mov a,_builtin_holtek_mant1[0]
 282  03FD  0080     R  	mov _chaosMath_2[20],a
 282  03FE  0700     R  	mov a,_y1[3]
 282  03FF  0080     E  	mov _builtin_holtek_mant12p[0],a
 282  0400  0700     R  	mov a,_y1[2]
 282  0401  0080     E  	mov _builtin_holtek_mant1[2],a
 282  0402  0700     R  	mov a,_y1[1]
 282  0403  0080     E  	mov _builtin_holtek_mant1[1],a
 282  0404  0700     R  	mov a,_y1[0]
 282  0405  0080     E  	mov _builtin_holtek_mant1[0],a
 282  0406  0700     R  	mov a,_c1[3]
 282  0407  0080     E  	mov _builtin_holtek_mant12p[1],a
 282  0408  0700     R  	mov a,_c1[2]
 282  0409  0080     E  	mov _builtin_holtek_mant2[2],a
 282  040A  0700     R  	mov a,_c1[1]
 282  040B  0080     E  	mov _builtin_holtek_mant2[1],a
 282  040C  0700     R  	mov a,_c1[0]
 282  040D  0080     E  	mov _builtin_holtek_mant2[0],a
 282  040E              	fcall _builtin_holtek_dtmul
 282  0415  0700     E  	mov a,_builtin_holtek_mant12p[0]
 282  0416  0080     E  	mov rg,a
 282  0417  0700     E  	mov a,_builtin_holtek_mant1[2]
 282  0418  0080     E  	mov rf,a
 282  0419  0700     E  	mov a,_builtin_holtek_mant1[1]
 282  041A  0080     E  	mov re,a
 282  041B  0700     E  	mov a,_builtin_holtek_mant1[0]
 282  041C  0080     E  	mov rd,a
 282  041D  0700     E  	mov a,rg
 282  041E  0080     E  	mov _builtin_holtek_mant12p[0],a
 282  041F  0700     E  	mov a,rf
 282  0420  0080     E  	mov _builtin_holtek_mant1[2],a
 282  0421  0700     E  	mov a,re
 282  0422  0080     E  	mov _builtin_holtek_mant1[1],a
 282  0423  0700     E  	mov a,rd
 282  0424  0080     E  	mov _builtin_holtek_mant1[0],a
 282  0425  0700     R  	mov a,_chaosMath_2[19]
 282  0426  0080     E  	mov _builtin_holtek_mant12p[1],a
 282  0427  0700     R  	mov a,_chaosMath_2[18]
 282  0428  0080     E  	mov _builtin_holtek_mant2[2],a
 282  0429  0700     R  	mov a,_chaosMath_2[17]
 282  042A  0080     E  	mov _builtin_holtek_mant2[1],a
 282  042B  0700     R  	mov a,_chaosMath_2[16]
 282  042C  0080     E  	mov _builtin_holtek_mant2[0],a
 282  042D              	fcall _builtin_holtek_dtmul
 282  0434  0700     E  	mov a,_builtin_holtek_mant12p[0]
 282  0435  0080     E  	mov rg,a
 282  0436  0700     E  	mov a,_builtin_holtek_mant1[2]
 282  0437  0080     E  	mov rf,a
 282  0438  0700     E  	mov a,_builtin_holtek_mant1[1]
 282  0439  0080     E  	mov re,a
 282  043A  0700     E  	mov a,_builtin_holtek_mant1[0]
 282  043B  0080     E  	mov rd,a
 282  043C  0700     R  	mov a,_chaosMath_2[23]
 282  043D  0080     E  	mov _builtin_holtek_mant12p[0],a
 282  043E  0700     R  	mov a,_chaosMath_2[22]
"File: chaosTest0731.c  Assembler  Version HGASM0202      Page 33

 282  043F  0080     E  	mov _builtin_holtek_mant1[2],a
 282  0440  0700     R  	mov a,_chaosMath_2[21]
 282  0441  0080     E  	mov _builtin_holtek_mant1[1],a
 282  0442  0700     R  	mov a,_chaosMath_2[20]
 282  0443  0080     E  	mov _builtin_holtek_mant1[0],a
 282  0444  0700     E  	mov a,rg
 282  0445  0080     E  	mov _builtin_holtek_mant12p[1],a
 282  0446  0700     E  	mov a,rf
 282  0447  0080     E  	mov _builtin_holtek_mant2[2],a
 282  0448  0700     E  	mov a,re
 282  0449  0080     E  	mov _builtin_holtek_mant2[1],a
 282  044A  0700     E  	mov a,rd
 282  044B  0080     E  	mov _builtin_holtek_mant2[0],a
 282  044C              	fcall _builtin_holtek_dtsub
 282  0453  0700     E  	mov a,_builtin_holtek_mant12p[0]
 282  0454  0080     R  	mov _chaosMath_2[23],a
 282  0455  0700     E  	mov a,_builtin_holtek_mant1[2]
 282  0456  0080     R  	mov _chaosMath_2[22],a
 282  0457  0700     E  	mov a,_builtin_holtek_mant1[1]
 282  0458  0080     R  	mov _chaosMath_2[21],a
 282  0459  0700     E  	mov a,_builtin_holtek_mant1[0]
 282  045A  0080     R  	mov _chaosMath_2[20],a
 282  045B  0700     R  	mov a,_y2[3]
 282  045C  0080     E  	mov _builtin_holtek_mant12p[0],a
 282  045D  0700     R  	mov a,_y2[2]
 282  045E  0080     E  	mov _builtin_holtek_mant1[2],a
 282  045F  0700     R  	mov a,_y2[1]
 282  0460  0080     E  	mov _builtin_holtek_mant1[1],a
 282  0461  0700     R  	mov a,_y2[0]
 282  0462  0080     E  	mov _builtin_holtek_mant1[0],a
 282  0463  0700     R  	mov a,_c2[3]
 282  0464  0080     E  	mov _builtin_holtek_mant12p[1],a
 282  0465  0700     R  	mov a,_c2[2]
 282  0466  0080     E  	mov _builtin_holtek_mant2[2],a
 282  0467  0700     R  	mov a,_c2[1]
 282  0468  0080     E  	mov _builtin_holtek_mant2[1],a
 282  0469  0700     R  	mov a,_c2[0]
 282  046A  0080     E  	mov _builtin_holtek_mant2[0],a
 282  046B              	fcall _builtin_holtek_dtmul
 282  0472  0700     E  	mov a,_builtin_holtek_mant12p[0]
 282  0473  0080     E  	mov rg,a
 282  0474  0700     E  	mov a,_builtin_holtek_mant1[2]
 282  0475  0080     E  	mov rf,a
 282  0476  0700     E  	mov a,_builtin_holtek_mant1[1]
 282  0477  0080     E  	mov re,a
 282  0478  0700     E  	mov a,_builtin_holtek_mant1[0]
 282  0479  0080     E  	mov rd,a
 282  047A  0700     E  	mov a,rg
 282  047B  0080     E  	mov _builtin_holtek_mant12p[0],a
 282  047C  0700     E  	mov a,rf
 282  047D  0080     E  	mov _builtin_holtek_mant1[2],a
 282  047E  0700     E  	mov a,re
 282  047F  0080     E  	mov _builtin_holtek_mant1[1],a
 282  0480  0700     E  	mov a,rd
 282  0481  0080     E  	mov _builtin_holtek_mant1[0],a
 282  0482  0700     R  	mov a,_chaosMath_2[27]
 282  0483  0080     E  	mov _builtin_holtek_mant12p[1],a
 282  0484  0700     R  	mov a,_chaosMath_2[26]
 282  0485  0080     E  	mov _builtin_holtek_mant2[2],a
 282  0486  0700     R  	mov a,_chaosMath_2[25]
"File: chaosTest0731.c  Assembler  Version HGASM0202      Page 34

 282  0487  0080     E  	mov _builtin_holtek_mant2[1],a
 282  0488  0700     R  	mov a,_chaosMath_2[24]
 282  0489  0080     E  	mov _builtin_holtek_mant2[0],a
 282  048A              	fcall _builtin_holtek_dtmul
 282  0491  0700     E  	mov a,_builtin_holtek_mant12p[0]
 282  0492  0080     E  	mov rg,a
 282  0493  0700     E  	mov a,_builtin_holtek_mant1[2]
 282  0494  0080     E  	mov rf,a
 282  0495  0700     E  	mov a,_builtin_holtek_mant1[1]
 282  0496  0080     E  	mov re,a
 282  0497  0700     E  	mov a,_builtin_holtek_mant1[0]
 282  0498  0080     E  	mov rd,a
 282  0499  0700     R  	mov a,_chaosMath_2[23]
 282  049A  0080     E  	mov _builtin_holtek_mant12p[0],a
 282  049B  0700     R  	mov a,_chaosMath_2[22]
 282  049C  0080     E  	mov _builtin_holtek_mant1[2],a
 282  049D  0700     R  	mov a,_chaosMath_2[21]
 282  049E  0080     E  	mov _builtin_holtek_mant1[1],a
 282  049F  0700     R  	mov a,_chaosMath_2[20]
 282  04A0  0080     E  	mov _builtin_holtek_mant1[0],a
 282  04A1  0700     E  	mov a,rg
 282  04A2  0080     E  	mov _builtin_holtek_mant12p[1],a
 282  04A3  0700     E  	mov a,rf
 282  04A4  0080     E  	mov _builtin_holtek_mant2[2],a
 282  04A5  0700     E  	mov a,re
 282  04A6  0080     E  	mov _builtin_holtek_mant2[1],a
 282  04A7  0700     E  	mov a,rd
 282  04A8  0080     E  	mov _builtin_holtek_mant2[0],a
 282  04A9              	fcall _builtin_holtek_dtsub
 282  04B0  0700     E  	mov a,_builtin_holtek_mant12p[0]
 282  04B1  0080     R  	mov _chaosMath_2[23],a
 282  04B2  0700     E  	mov a,_builtin_holtek_mant1[2]
 282  04B3  0080     R  	mov _chaosMath_2[22],a
 282  04B4  0700     E  	mov a,_builtin_holtek_mant1[1]
 282  04B5  0080     R  	mov _chaosMath_2[21],a
 282  04B6  0700     E  	mov a,_builtin_holtek_mant1[0]
 282  04B7  0080     R  	mov _chaosMath_2[20],a
 282  04B8  0700     R  	mov a,_y1[3]
 282  04B9  0080     E  	mov _builtin_holtek_mant12p[0],a
 282  04BA  0700     R  	mov a,_y1[2]
 282  04BB  0080     E  	mov _builtin_holtek_mant1[2],a
 282  04BC  0700     R  	mov a,_y1[1]
 282  04BD  0080     E  	mov _builtin_holtek_mant1[1],a
 282  04BE  0700     R  	mov a,_y1[0]
 282  04BF  0080     E  	mov _builtin_holtek_mant1[0],a
 282  04C0  0700     R  	mov a,_A[3]
 282  04C1  0080     E  	mov _builtin_holtek_mant12p[1],a
 282  04C2  0700     R  	mov a,_A[2]
 282  04C3  0080     E  	mov _builtin_holtek_mant2[2],a
 282  04C4  0700     R  	mov a,_A[1]
 282  04C5  0080     E  	mov _builtin_holtek_mant2[1],a
 282  04C6  0700     R  	mov a,_A[0]
 282  04C7  0080     E  	mov _builtin_holtek_mant2[0],a
 282  04C8              	fcall _builtin_holtek_dtmul
 282  04CF  0700     E  	mov a,_builtin_holtek_mant12p[0]
 282  04D0  0080     E  	mov rg,a
 282  04D1  0700     E  	mov a,_builtin_holtek_mant1[2]
 282  04D2  0080     E  	mov rf,a
 282  04D3  0700     E  	mov a,_builtin_holtek_mant1[1]
 282  04D4  0080     E  	mov re,a
"File: chaosTest0731.c  Assembler  Version HGASM0202      Page 35

 282  04D5  0700     E  	mov a,_builtin_holtek_mant1[0]
 282  04D6  0080     E  	mov rd,a
 282  04D7  0700     R  	mov a,_chaosMath_2[23]
 282  04D8  0080     E  	mov _builtin_holtek_mant12p[0],a
 282  04D9  0700     R  	mov a,_chaosMath_2[22]
 282  04DA  0080     E  	mov _builtin_holtek_mant1[2],a
 282  04DB  0700     R  	mov a,_chaosMath_2[21]
 282  04DC  0080     E  	mov _builtin_holtek_mant1[1],a
 282  04DD  0700     R  	mov a,_chaosMath_2[20]
 282  04DE  0080     E  	mov _builtin_holtek_mant1[0],a
 282  04DF  0700     E  	mov a,rg
 282  04E0  0080     E  	mov _builtin_holtek_mant12p[1],a
 282  04E1  0700     E  	mov a,rf
 282  04E2  0080     E  	mov _builtin_holtek_mant2[2],a
 282  04E3  0700     E  	mov a,re
 282  04E4  0080     E  	mov _builtin_holtek_mant2[1],a
 282  04E5  0700     E  	mov a,rd
 282  04E6  0080     E  	mov _builtin_holtek_mant2[0],a
 282  04E7              	fcall _builtin_holtek_dtadd
 282  04EE  0700     E  	mov a,_builtin_holtek_mant12p[0]
 282  04EF  0080     R  	mov _chaosMath_2[23],a
 282  04F0  0700     E  	mov a,_builtin_holtek_mant1[2]
 282  04F1  0080     R  	mov _chaosMath_2[22],a
 282  04F2  0700     E  	mov a,_builtin_holtek_mant1[1]
 282  04F3  0080     R  	mov _chaosMath_2[21],a
 282  04F4  0700     E  	mov a,_builtin_holtek_mant1[0]
 282  04F5  0080     R  	mov _chaosMath_2[20],a
 282  04F6  0700     R  	mov a,_y2[3]
 282  04F7  0080     E  	mov _builtin_holtek_mant12p[0],a
 282  04F8  0700     R  	mov a,_y2[2]
 282  04F9  0080     E  	mov _builtin_holtek_mant1[2],a
 282  04FA  0700     R  	mov a,_y2[1]
 282  04FB  0080     E  	mov _builtin_holtek_mant1[1],a
 282  04FC  0700     R  	mov a,_y2[0]
 282  04FD  0080     E  	mov _builtin_holtek_mant1[0],a
 282  04FE  0700     R  	mov a,_c1[3]
 282  04FF  0080     E  	mov _builtin_holtek_mant12p[1],a
 282  0500  0700     R  	mov a,_c1[2]
 282  0501  0080     E  	mov _builtin_holtek_mant2[2],a
 282  0502  0700     R  	mov a,_c1[1]
 282  0503  0080     E  	mov _builtin_holtek_mant2[1],a
 282  0504  0700     R  	mov a,_c1[0]
 282  0505  0080     E  	mov _builtin_holtek_mant2[0],a
 282  0506              	fcall _builtin_holtek_dtmul
 282  050D  0700     E  	mov a,_builtin_holtek_mant12p[0]
 282  050E  0080     E  	mov rg,a
 282  050F  0700     E  	mov a,_builtin_holtek_mant1[2]
 282  0510  0080     E  	mov rf,a
 282  0511  0700     E  	mov a,_builtin_holtek_mant1[1]
 282  0512  0080     E  	mov re,a
 282  0513  0700     E  	mov a,_builtin_holtek_mant1[0]
 282  0514  0080     E  	mov rd,a
 282  0515  0700     E  	mov a,rg
 282  0516  0080     E  	mov _builtin_holtek_mant12p[0],a
 282  0517  0700     E  	mov a,rf
 282  0518  0080     E  	mov _builtin_holtek_mant1[2],a
 282  0519  0700     E  	mov a,re
 282  051A  0080     E  	mov _builtin_holtek_mant1[1],a
 282  051B  0700     E  	mov a,rd
 282  051C  0080     E  	mov _builtin_holtek_mant1[0],a
"File: chaosTest0731.c  Assembler  Version HGASM0202      Page 36

 282  051D  0700     R  	mov a,_A[3]
 282  051E  0080     E  	mov _builtin_holtek_mant12p[1],a
 282  051F  0700     R  	mov a,_A[2]
 282  0520  0080     E  	mov _builtin_holtek_mant2[2],a
 282  0521  0700     R  	mov a,_A[1]
 282  0522  0080     E  	mov _builtin_holtek_mant2[1],a
 282  0523  0700     R  	mov a,_A[0]
 282  0524  0080     E  	mov _builtin_holtek_mant2[0],a
 282  0525              	fcall _builtin_holtek_dtmul
 282  052C  0700     E  	mov a,_builtin_holtek_mant12p[0]
 282  052D  0080     E  	mov rg,a
 282  052E  0700     E  	mov a,_builtin_holtek_mant1[2]
 282  052F  0080     E  	mov rf,a
 282  0530  0700     E  	mov a,_builtin_holtek_mant1[1]
 282  0531  0080     E  	mov re,a
 282  0532  0700     E  	mov a,_builtin_holtek_mant1[0]
 282  0533  0080     E  	mov rd,a
 282  0534  0700     R  	mov a,_chaosMath_2[23]
 282  0535  0080     E  	mov _builtin_holtek_mant12p[0],a
 282  0536  0700     R  	mov a,_chaosMath_2[22]
 282  0537  0080     E  	mov _builtin_holtek_mant1[2],a
 282  0538  0700     R  	mov a,_chaosMath_2[21]
 282  0539  0080     E  	mov _builtin_holtek_mant1[1],a
 282  053A  0700     R  	mov a,_chaosMath_2[20]
 282  053B  0080     E  	mov _builtin_holtek_mant1[0],a
 282  053C  0700     E  	mov a,rg
 282  053D  0080     E  	mov _builtin_holtek_mant12p[1],a
 282  053E  0700     E  	mov a,rf
 282  053F  0080     E  	mov _builtin_holtek_mant2[2],a
 282  0540  0700     E  	mov a,re
 282  0541  0080     E  	mov _builtin_holtek_mant2[1],a
 282  0542  0700     E  	mov a,rd
 282  0543  0080     E  	mov _builtin_holtek_mant2[0],a
 282  0544              	fcall _builtin_holtek_dtadd
 282  054B  0700     E  	mov a,_builtin_holtek_mant12p[0]
 282  054C  0080     R  	mov _chaosMath_2[39],a
 282  054D  0700     E  	mov a,_builtin_holtek_mant1[2]
 282  054E  0080     R  	mov _chaosMath_2[38],a
 282  054F  0700     E  	mov a,_builtin_holtek_mant1[1]
 282  0550  0080     R  	mov _chaosMath_2[37],a
 282  0551  0700     E  	mov a,_builtin_holtek_mant1[0]
 282  0552  0080     R  	mov _chaosMath_2[36],a
 282  0553  0700     R  	mov a,_y3[3]
 282  0554  0080     E  	mov _builtin_holtek_mant12p[0],a
 282  0555  0700     R  	mov a,_y3[2]
 282  0556  0080     E  	mov _builtin_holtek_mant1[2],a
 282  0557  0700     R  	mov a,_y3[1]
 282  0558  0080     E  	mov _builtin_holtek_mant1[1],a
 282  0559  0700     R  	mov a,_y3[0]
 282  055A  0080     E  	mov _builtin_holtek_mant1[0],a
 282  055B  0700     R  	mov a,_c2[3]
 282  055C  0080     E  	mov _builtin_holtek_mant12p[1],a
 282  055D  0700     R  	mov a,_c2[2]
 282  055E  0080     E  	mov _builtin_holtek_mant2[2],a
 282  055F  0700     R  	mov a,_c2[1]
 282  0560  0080     E  	mov _builtin_holtek_mant2[1],a
 282  0561  0700     R  	mov a,_c2[0]
 282  0562  0080     E  	mov _builtin_holtek_mant2[0],a
 282  0563              	fcall _builtin_holtek_dtmul
 282  056A  0700     E  	mov a,_builtin_holtek_mant12p[0]
"File: chaosTest0731.c  Assembler  Version HGASM0202      Page 37

 282  056B  0080     E  	mov rg,a
 282  056C  0700     E  	mov a,_builtin_holtek_mant1[2]
 282  056D  0080     E  	mov rf,a
 282  056E  0700     E  	mov a,_builtin_holtek_mant1[1]
 282  056F  0080     E  	mov re,a
 282  0570  0700     E  	mov a,_builtin_holtek_mant1[0]
 282  0571  0080     E  	mov rd,a
 282  0572  0700     E  	mov a,rg
 282  0573  0080     E  	mov _builtin_holtek_mant12p[0],a
 282  0574  0700     E  	mov a,rf
 282  0575  0080     E  	mov _builtin_holtek_mant1[2],a
 282  0576  0700     E  	mov a,re
 282  0577  0080     E  	mov _builtin_holtek_mant1[1],a
 282  0578  0700     E  	mov a,rd
 282  0579  0080     E  	mov _builtin_holtek_mant1[0],a
 282  057A  0700     R  	mov a,_A[3]
 282  057B  0080     E  	mov _builtin_holtek_mant12p[1],a
 282  057C  0700     R  	mov a,_A[2]
 282  057D  0080     E  	mov _builtin_holtek_mant2[2],a
 282  057E  0700     R  	mov a,_A[1]
 282  057F  0080     E  	mov _builtin_holtek_mant2[1],a
 282  0580  0700     R  	mov a,_A[0]
 282  0581  0080     E  	mov _builtin_holtek_mant2[0],a
 282  0582              	fcall _builtin_holtek_dtmul
 282  0589  0700     E  	mov a,_builtin_holtek_mant12p[0]
 282  058A  0080     E  	mov rg,a
 282  058B  0700     E  	mov a,_builtin_holtek_mant1[2]
 282  058C  0080     E  	mov rf,a
 282  058D  0700     E  	mov a,_builtin_holtek_mant1[1]
 282  058E  0080     E  	mov re,a
 282  058F  0700     E  	mov a,_builtin_holtek_mant1[0]
 282  0590  0080     E  	mov rd,a
 282  0591  0700     R  	mov a,_chaosMath_2[39]
 282  0592  0080     E  	mov _builtin_holtek_mant12p[0],a
 282  0593  0700     R  	mov a,_chaosMath_2[38]
 282  0594  0080     E  	mov _builtin_holtek_mant1[2],a
 282  0595  0700     R  	mov a,_chaosMath_2[37]
 282  0596  0080     E  	mov _builtin_holtek_mant1[1],a
 282  0597  0700     R  	mov a,_chaosMath_2[36]
 282  0598  0080     E  	mov _builtin_holtek_mant1[0],a
 282  0599  0700     E  	mov a,rg
 282  059A  0080     E  	mov _builtin_holtek_mant12p[1],a
 282  059B  0700     E  	mov a,rf
 282  059C  0080     E  	mov _builtin_holtek_mant2[2],a
 282  059D  0700     E  	mov a,re
 282  059E  0080     E  	mov _builtin_holtek_mant2[1],a
 282  059F  0700     E  	mov a,rd
 282  05A0  0080     E  	mov _builtin_holtek_mant2[0],a
 282  05A1              	fcall _builtin_holtek_dtadd
 282  05A8  0700     E  	mov a,_builtin_holtek_mant12p[0]
 282  05A9  0080     E  	mov rg,a
 282  05AA  0700     E  	mov a,_builtin_holtek_mant1[2]
 282  05AB  0080     E  	mov rf,a
 282  05AC  0700     E  	mov a,_builtin_holtek_mant1[1]
 282  05AD  0080     E  	mov re,a
 282  05AE  0700     E  	mov a,_builtin_holtek_mant1[0]
 282  05AF  0080     E  	mov rd,a
 282  05B0  0700     E  	mov a,rd
 282  05B1  0080     R  	mov _u2[0],a
 282  05B2  0700     E  	mov a,re
"File: chaosTest0731.c  Assembler  Version HGASM0202      Page 38

 282  05B3  0080     R  	mov _u2[1],a
 282  05B4  0700     E  	mov a,rf
 282  05B5  0080     R  	mov _u2[2],a
 282  05B6  0700     E  	mov a,rg
 282  05B7  0080     R  	mov _u2[3],a
 284  05B8              #line 284 "C:\Users\user1801\Desktop\HOLTEK\1070706\chaosTest0731\chaosTest0731.c"
 284  05B8  0700     R  	mov a,_chaosMath_2[7]
 284  05B9  0080     E  	mov _builtin_holtek_mant12p[0],a
 284  05BA  0700     R  	mov a,_chaosMath_2[6]
 284  05BB  0080     E  	mov _builtin_holtek_mant1[2],a
 284  05BC  0700     R  	mov a,_chaosMath_2[5]
 284  05BD  0080     E  	mov _builtin_holtek_mant1[1],a
 284  05BE  0700     R  	mov a,_chaosMath_2[4]
 284  05BF  0080     E  	mov _builtin_holtek_mant1[0],a
 284  05C0  0700     R  	mov a,_y2[3]
 284  05C1  0080     E  	mov _builtin_holtek_mant12p[1],a
 284  05C2  0700     R  	mov a,_y2[2]
 284  05C3  0080     E  	mov _builtin_holtek_mant2[2],a
 284  05C4  0700     R  	mov a,_y2[1]
 284  05C5  0080     E  	mov _builtin_holtek_mant2[1],a
 284  05C6  0700     R  	mov a,_y2[0]
 284  05C7  0080     E  	mov _builtin_holtek_mant2[0],a
 284  05C8              	fcall _builtin_holtek_dtmul
 284  05CF  0700     E  	mov a,_builtin_holtek_mant12p[0]
 284  05D0  0080     R  	mov _chaosMath_2[7],a
 284  05D1  0700     E  	mov a,_builtin_holtek_mant1[2]
 284  05D2  0080     R  	mov _chaosMath_2[6],a
 284  05D3  0700     E  	mov a,_builtin_holtek_mant1[1]
 284  05D4  0080     R  	mov _chaosMath_2[5],a
 284  05D5  0700     E  	mov a,_builtin_holtek_mant1[0]
 284  05D6  0080     R  	mov _chaosMath_2[4],a
 284  05D7  0700     R  	mov a,_chaosMath_2[7]
 284  05D8  0080     E  	mov _builtin_holtek_mant12p[0],a
 284  05D9  0700     R  	mov a,_chaosMath_2[6]
 284  05DA  0080     E  	mov _builtin_holtek_mant1[2],a
 284  05DB  0700     R  	mov a,_chaosMath_2[5]
 284  05DC  0080     E  	mov _builtin_holtek_mant1[1],a
 284  05DD  0700     R  	mov a,_chaosMath_2[4]
 284  05DE  0080     E  	mov _builtin_holtek_mant1[0],a
 284  05DF  0700     R  	mov a,_y2[3]
 284  05E0  0080     E  	mov _builtin_holtek_mant12p[1],a
 284  05E1  0700     R  	mov a,_y2[2]
 284  05E2  0080     E  	mov _builtin_holtek_mant2[2],a
 284  05E3  0700     R  	mov a,_y2[1]
 284  05E4  0080     E  	mov _builtin_holtek_mant2[1],a
 284  05E5  0700     R  	mov a,_y2[0]
 284  05E6  0080     E  	mov _builtin_holtek_mant2[0],a
 284  05E7              	fcall _builtin_holtek_dtmul
 284  05EE  0700     E  	mov a,_builtin_holtek_mant12p[0]
 284  05EF  0080     R  	mov _chaosMath_2[7],a
 284  05F0  0700     E  	mov a,_builtin_holtek_mant1[2]
 284  05F1  0080     R  	mov _chaosMath_2[6],a
 284  05F2  0700     E  	mov a,_builtin_holtek_mant1[1]
 284  05F3  0080     R  	mov _chaosMath_2[5],a
 284  05F4  0700     E  	mov a,_builtin_holtek_mant1[0]
 284  05F5  0080     R  	mov _chaosMath_2[4],a
 284  05F6  0700     R  	mov a,_chaosMath_2[7]
 284  05F7  0080     E  	mov _builtin_holtek_mant12p[0],a
 284  05F8  0700     R  	mov a,_chaosMath_2[6]
 284  05F9  0080     E  	mov _builtin_holtek_mant1[2],a
"File: chaosTest0731.c  Assembler  Version HGASM0202      Page 39

 284  05FA  0700     R  	mov a,_chaosMath_2[5]
 284  05FB  0080     E  	mov _builtin_holtek_mant1[1],a
 284  05FC  0700     R  	mov a,_chaosMath_2[4]
 284  05FD  0080     E  	mov _builtin_holtek_mant1[0],a
 284  05FE  0700     R  	mov a,_chaosMath_2[31]
 284  05FF  0080     E  	mov _builtin_holtek_mant12p[1],a
 284  0600  0700     R  	mov a,_chaosMath_2[30]
 284  0601  0080     E  	mov _builtin_holtek_mant2[2],a
 284  0602  0700     R  	mov a,_chaosMath_2[29]
 284  0603  0080     E  	mov _builtin_holtek_mant2[1],a
 284  0604  0700     R  	mov a,_chaosMath_2[28]
 284  0605  0080     E  	mov _builtin_holtek_mant2[0],a
 284  0606              	fcall _builtin_holtek_dtadd
 284  060D  0700     E  	mov a,_builtin_holtek_mant12p[0]
 284  060E  0080     R  	mov _chaosMath_2[7],a
 284  060F  0700     E  	mov a,_builtin_holtek_mant1[2]
 284  0610  0080     R  	mov _chaosMath_2[6],a
 284  0611  0700     E  	mov a,_builtin_holtek_mant1[1]
 284  0612  0080     R  	mov _chaosMath_2[5],a
 284  0613  0700     E  	mov a,_builtin_holtek_mant1[0]
 284  0614  0080     R  	mov _chaosMath_2[4],a
 284  0615  0700     R  	mov a,_chaosMath_2[7]
 284  0616  0080     E  	mov _builtin_holtek_mant12p[0],a
 284  0617  0700     R  	mov a,_chaosMath_2[6]
 284  0618  0080     E  	mov _builtin_holtek_mant1[2],a
 284  0619  0700     R  	mov a,_chaosMath_2[5]
 284  061A  0080     E  	mov _builtin_holtek_mant1[1],a
 284  061B  0700     R  	mov a,_chaosMath_2[4]
 284  061C  0080     E  	mov _builtin_holtek_mant1[0],a
 284  061D  0700     R  	mov a,_chaosMath_2[35]
 284  061E  0080     E  	mov _builtin_holtek_mant12p[1],a
 284  061F  0700     R  	mov a,_chaosMath_2[34]
 284  0620  0080     E  	mov _builtin_holtek_mant2[2],a
 284  0621  0700     R  	mov a,_chaosMath_2[33]
 284  0622  0080     E  	mov _builtin_holtek_mant2[1],a
 284  0623  0700     R  	mov a,_chaosMath_2[32]
 284  0624  0080     E  	mov _builtin_holtek_mant2[0],a
 284  0625              	fcall _builtin_holtek_dtadd
 284  062C  0700     E  	mov a,_builtin_holtek_mant12p[0]
 284  062D  0080     R  	mov _chaosMath_2[7],a
 284  062E  0700     E  	mov a,_builtin_holtek_mant1[2]
 284  062F  0080     R  	mov _chaosMath_2[6],a
 284  0630  0700     E  	mov a,_builtin_holtek_mant1[1]
 284  0631  0080     R  	mov _chaosMath_2[5],a
 284  0632  0700     E  	mov a,_builtin_holtek_mant1[0]
 284  0633  0080     R  	mov _chaosMath_2[4],a
 284  0634  0700     R  	mov a,_chaosMath_2[7]
 284  0635  0080     E  	mov _builtin_holtek_mant12p[0],a
 284  0636  0700     R  	mov a,_chaosMath_2[6]
 284  0637  0080     E  	mov _builtin_holtek_mant1[2],a
 284  0638  0700     R  	mov a,_chaosMath_2[5]
 284  0639  0080     E  	mov _builtin_holtek_mant1[1],a
 284  063A  0700     R  	mov a,_chaosMath_2[4]
 284  063B  0080     E  	mov _builtin_holtek_mant1[0],a
 284  063C  0700     R  	mov a,_chaosMath_2[43]
 284  063D  0080     E  	mov _builtin_holtek_mant12p[1],a
 284  063E  0700     R  	mov a,_chaosMath_2[42]
 284  063F  0080     E  	mov _builtin_holtek_mant2[2],a
 284  0640  0700     R  	mov a,_chaosMath_2[41]
 284  0641  0080     E  	mov _builtin_holtek_mant2[1],a
"File: chaosTest0731.c  Assembler  Version HGASM0202      Page 40

 284  0642  0700     R  	mov a,_chaosMath_2[40]
 284  0643  0080     E  	mov _builtin_holtek_mant2[0],a
 284  0644              	fcall _builtin_holtek_dtadd
 284  064B  0700     E  	mov a,_builtin_holtek_mant12p[0]
 284  064C  0080     R  	mov _chaosMath_2[7],a
 284  064D  0700     E  	mov a,_builtin_holtek_mant1[2]
 284  064E  0080     R  	mov _chaosMath_2[6],a
 284  064F  0700     E  	mov a,_builtin_holtek_mant1[1]
 284  0650  0080     R  	mov _chaosMath_2[5],a
 284  0651  0700     E  	mov a,_builtin_holtek_mant1[0]
 284  0652  0080     R  	mov _chaosMath_2[4],a
 284  0653  0700     R  	mov a,_chaosMath_2[7]
 284  0654  0080     E  	mov _builtin_holtek_mant12p[0],a
 284  0655  0700     R  	mov a,_chaosMath_2[6]
 284  0656  0080     E  	mov _builtin_holtek_mant1[2],a
 284  0657  0700     R  	mov a,_chaosMath_2[5]
 284  0658  0080     E  	mov _builtin_holtek_mant1[1],a
 284  0659  0700     R  	mov a,_chaosMath_2[4]
 284  065A  0080     E  	mov _builtin_holtek_mant1[0],a
 284  065B  0700     R  	mov a,_chaosMath_2[3]
 284  065C  0080     E  	mov _builtin_holtek_mant12p[1],a
 284  065D  0700     R  	mov a,_chaosMath_2[2]
 284  065E  0080     E  	mov _builtin_holtek_mant2[2],a
 284  065F  0700     R  	mov a,_chaosMath_2[1]
 284  0660  0080     E  	mov _builtin_holtek_mant2[1],a
 284  0661  0700     R  	mov a,_chaosMath_2[0]
 284  0662  0080     E  	mov _builtin_holtek_mant2[0],a
 284  0663              	fcall _builtin_holtek_dtadd
 284  066A  0700     E  	mov a,_builtin_holtek_mant12p[0]
 284  066B  0080     R  	mov _chaosMath_2[7],a
 284  066C  0700     E  	mov a,_builtin_holtek_mant1[2]
 284  066D  0080     R  	mov _chaosMath_2[6],a
 284  066E  0700     E  	mov a,_builtin_holtek_mant1[1]
 284  066F  0080     R  	mov _chaosMath_2[5],a
 284  0670  0700     E  	mov a,_builtin_holtek_mant1[0]
 284  0671  0080     R  	mov _chaosMath_2[4],a
 284  0672  0700     R  	mov a,_chaosMath_2[7]
 284  0673  0080     E  	mov _builtin_holtek_mant12p[0],a
 284  0674  0700     R  	mov a,_chaosMath_2[6]
 284  0675  0080     E  	mov _builtin_holtek_mant1[2],a
 284  0676  0700     R  	mov a,_chaosMath_2[5]
 284  0677  0080     E  	mov _builtin_holtek_mant1[1],a
 284  0678  0700     R  	mov a,_chaosMath_2[4]
 284  0679  0080     E  	mov _builtin_holtek_mant1[0],a
 284  067A  0700     E  	mov a,rg
 284  067B  0080     E  	mov _builtin_holtek_mant12p[1],a
 284  067C  0700     E  	mov a,rf
 284  067D  0080     E  	mov _builtin_holtek_mant2[2],a
 284  067E  0700     E  	mov a,re
 284  067F  0080     E  	mov _builtin_holtek_mant2[1],a
 284  0680  0700     E  	mov a,rd
 284  0681  0080     E  	mov _builtin_holtek_mant2[0],a
 284  0682              	fcall _builtin_holtek_dtadd
 284  0689  0700     E  	mov a,_builtin_holtek_mant12p[0]
 284  068A  0080     R  	mov _chaosMath_2[7],a
 284  068B  0700     E  	mov a,_builtin_holtek_mant1[2]
 284  068C  0080     R  	mov _chaosMath_2[6],a
 284  068D  0700     E  	mov a,_builtin_holtek_mant1[1]
 284  068E  0080     R  	mov _chaosMath_2[5],a
 284  068F  0700     E  	mov a,_builtin_holtek_mant1[0]
"File: chaosTest0731.c  Assembler  Version HGASM0202      Page 41

 284  0690  0080     R  	mov _chaosMath_2[4],a
 284  0691  0700     R  	mov a,_chaosMath_2[4]
 284  0692  0080     R  	mov _y1n[0],a
 284  0693  0700     R  	mov a,_chaosMath_2[5]
 284  0694  0080     R  	mov _y1n[1],a
 284  0695  0700     R  	mov a,_chaosMath_2[6]
 284  0696  0080     R  	mov _y1n[2],a
 284  0697  0700     R  	mov a,_chaosMath_2[7]
 284  0698  0080     R  	mov _y1n[3],a
 285  0699              #line 285 "C:\Users\user1801\Desktop\HOLTEK\1070706\chaosTest0731\chaosTest0731.c"
 285  0699  0700     R  	mov a,_chaosMath_2[19]
 285  069A  0080     E  	mov _builtin_holtek_mant12p[0],a
 285  069B  0700     R  	mov a,_chaosMath_2[18]
 285  069C  0080     E  	mov _builtin_holtek_mant1[2],a
 285  069D  0700     R  	mov a,_chaosMath_2[17]
 285  069E  0080     E  	mov _builtin_holtek_mant1[1],a
 285  069F  0700     R  	mov a,_chaosMath_2[16]
 285  06A0  0080     E  	mov _builtin_holtek_mant1[0],a
 285  06A1  0700     R  	mov a,_y1[3]
 285  06A2  0080     E  	mov _builtin_holtek_mant12p[1],a
 285  06A3  0700     R  	mov a,_y1[2]
 285  06A4  0080     E  	mov _builtin_holtek_mant2[2],a
 285  06A5  0700     R  	mov a,_y1[1]
 285  06A6  0080     E  	mov _builtin_holtek_mant2[1],a
 285  06A7  0700     R  	mov a,_y1[0]
 285  06A8  0080     E  	mov _builtin_holtek_mant2[0],a
 285  06A9              	fcall _builtin_holtek_dtmul
 285  06B0  0700     E  	mov a,_builtin_holtek_mant12p[0]
 285  06B1  0080     E  	mov rg,a
 285  06B2  0700     E  	mov a,_builtin_holtek_mant1[2]
 285  06B3  0080     E  	mov rf,a
 285  06B4  0700     E  	mov a,_builtin_holtek_mant1[1]
 285  06B5  0080     E  	mov re,a
 285  06B6  0700     E  	mov a,_builtin_holtek_mant1[0]
 285  06B7  0080     E  	mov rd,a
 285  06B8  0700     E  	mov a,rg
 285  06B9  0080     E  	mov _builtin_holtek_mant12p[0],a
 285  06BA  0700     E  	mov a,rf
 285  06BB  0080     E  	mov _builtin_holtek_mant1[2],a
 285  06BC  0700     E  	mov a,re
 285  06BD  0080     E  	mov _builtin_holtek_mant1[1],a
 285  06BE  0700     E  	mov a,rd
 285  06BF  0080     E  	mov _builtin_holtek_mant1[0],a
 285  06C0  0700     R  	mov a,_chaosMath_2[47]
 285  06C1  0080     E  	mov _builtin_holtek_mant12p[1],a
 285  06C2  0700     R  	mov a,_chaosMath_2[46]
 285  06C3  0080     E  	mov _builtin_holtek_mant2[2],a
 285  06C4  0700     R  	mov a,_chaosMath_2[45]
 285  06C5  0080     E  	mov _builtin_holtek_mant2[1],a
 285  06C6  0700     R  	mov a,_chaosMath_2[44]
 285  06C7  0080     E  	mov _builtin_holtek_mant2[0],a
 285  06C8              	fcall _builtin_holtek_dtadd
 285  06CF  0700     E  	mov a,_builtin_holtek_mant12p[0]
 285  06D0  0080     R  	mov _chaosMath_2[11],a
 285  06D1  0700     E  	mov a,_builtin_holtek_mant1[2]
 285  06D2  0080     R  	mov _chaosMath_2[10],a
 285  06D3  0700     E  	mov a,_builtin_holtek_mant1[1]
 285  06D4  0080     R  	mov _chaosMath_2[9],a
 285  06D5  0700     E  	mov a,_builtin_holtek_mant1[0]
 285  06D6  0080     R  	mov _chaosMath_2[8],a
"File: chaosTest0731.c  Assembler  Version HGASM0202      Page 42

 285  06D7  0700     R  	mov a,_chaosMath_2[8]
 285  06D8  0080     R  	mov _y2n[0],a
 285  06D9  0700     R  	mov a,_chaosMath_2[9]
 285  06DA  0080     R  	mov _y2n[1],a
 285  06DB  0700     R  	mov a,_chaosMath_2[10]
 285  06DC  0080     R  	mov _y2n[2],a
 285  06DD  0700     R  	mov a,_chaosMath_2[11]
 285  06DE  0080     R  	mov _y2n[3],a
 286  06DF              #line 286 "C:\Users\user1801\Desktop\HOLTEK\1070706\chaosTest0731\chaosTest0731.c"
 286  06DF  0700     R  	mov a,_chaosMath_2[27]
 286  06E0  0080     E  	mov _builtin_holtek_mant12p[0],a
 286  06E1  0700     R  	mov a,_chaosMath_2[26]
 286  06E2  0080     E  	mov _builtin_holtek_mant1[2],a
 286  06E3  0700     R  	mov a,_chaosMath_2[25]
 286  06E4  0080     E  	mov _builtin_holtek_mant1[1],a
 286  06E5  0700     R  	mov a,_chaosMath_2[24]
 286  06E6  0080     E  	mov _builtin_holtek_mant1[0],a
 286  06E7  0700     R  	mov a,_y2[3]
 286  06E8  0080     E  	mov _builtin_holtek_mant12p[1],a
 286  06E9  0700     R  	mov a,_y2[2]
 286  06EA  0080     E  	mov _builtin_holtek_mant2[2],a
 286  06EB  0700     R  	mov a,_y2[1]
 286  06EC  0080     E  	mov _builtin_holtek_mant2[1],a
 286  06ED  0700     R  	mov a,_y2[0]
 286  06EE  0080     E  	mov _builtin_holtek_mant2[0],a
 286  06EF              	fcall _builtin_holtek_dtmul
 286  06F6  0700     E  	mov a,_builtin_holtek_mant12p[0]
 286  06F7  0080     E  	mov rg,a
 286  06F8  0700     E  	mov a,_builtin_holtek_mant1[2]
 286  06F9  0080     E  	mov rf,a
 286  06FA  0700     E  	mov a,_builtin_holtek_mant1[1]
 286  06FB  0080     E  	mov re,a
 286  06FC  0700     E  	mov a,_builtin_holtek_mant1[0]
 286  06FD  0080     E  	mov rd,a
 286  06FE  0700     E  	mov a,rg
 286  06FF  0080     E  	mov _builtin_holtek_mant12p[0],a
 286  0700  0700     E  	mov a,rf
 286  0701  0080     E  	mov _builtin_holtek_mant1[2],a
 286  0702  0700     E  	mov a,re
 286  0703  0080     E  	mov _builtin_holtek_mant1[1],a
 286  0704  0700     E  	mov a,rd
 286  0705  0080     E  	mov _builtin_holtek_mant1[0],a
 286  0706  0700     R  	mov a,_chaosMath_2[15]
 286  0707  0080     E  	mov _builtin_holtek_mant12p[1],a
 286  0708  0700     R  	mov a,_chaosMath_2[14]
 286  0709  0080     E  	mov _builtin_holtek_mant2[2],a
 286  070A  0700     R  	mov a,_chaosMath_2[13]
 286  070B  0080     E  	mov _builtin_holtek_mant2[1],a
 286  070C  0700     R  	mov a,_chaosMath_2[12]
 286  070D  0080     E  	mov _builtin_holtek_mant2[0],a
 286  070E              	fcall _builtin_holtek_dtadd
 286  0715  0700     E  	mov a,_builtin_holtek_mant12p[0]
 286  0716  0080     E  	mov rg,a
 286  0717  0700     E  	mov a,_builtin_holtek_mant1[2]
 286  0718  0080     E  	mov rf,a
 286  0719  0700     E  	mov a,_builtin_holtek_mant1[1]
 286  071A  0080     E  	mov re,a
 286  071B  0700     E  	mov a,_builtin_holtek_mant1[0]
 286  071C  0080     E  	mov rd,a
 286  071D  0700     E  	mov a,rd
"File: chaosTest0731.c  Assembler  Version HGASM0202      Page 43

 286  071E  0080     R  	mov _y3n[0],a
 286  071F  0700     E  	mov a,re
 286  0720  0080     R  	mov _y3n[1],a
 286  0721  0700     E  	mov a,rf
 286  0722  0080     R  	mov _y3n[2],a
 286  0723  0700     E  	mov a,rg
 286  0724  0080     R  	mov _y3n[3],a
 291  0725              #line 291 "C:\Users\user1801\Desktop\HOLTEK\1070706\chaosTest0731\chaosTest0731.c"
 291  0725  0700     R  	mov a,_chaosMath_2[4]
 291  0726  0080     R  	mov _y1[0],a
 291  0727  0700     R  	mov a,_chaosMath_2[5]
 291  0728  0080     R  	mov _y1[1],a
 291  0729  0700     R  	mov a,_chaosMath_2[6]
 291  072A  0080     R  	mov _y1[2],a
 291  072B  0700     R  	mov a,_chaosMath_2[7]
 291  072C  0080     R  	mov _y1[3],a
 292  072D              #line 292 "C:\Users\user1801\Desktop\HOLTEK\1070706\chaosTest0731\chaosTest0731.c"
 292  072D  0700     R  	mov a,_chaosMath_2[8]
 292  072E  0080     R  	mov _y2[0],a
 292  072F  0700     R  	mov a,_chaosMath_2[9]
 292  0730  0080     R  	mov _y2[1],a
 292  0731  0700     R  	mov a,_chaosMath_2[10]
 292  0732  0080     R  	mov _y2[2],a
 292  0733  0700     R  	mov a,_chaosMath_2[11]
 292  0734  0080     R  	mov _y2[3],a
 293  0735              #line 293 "C:\Users\user1801\Desktop\HOLTEK\1070706\chaosTest0731\chaosTest0731.c"
 293  0735  0700     E  	mov a,rd
 293  0736  0080     R  	mov _y3[0],a
 293  0737  0700     E  	mov a,re
 293  0738  0080     R  	mov _y3[1],a
 293  0739  0700     E  	mov a,rf
 293  073A  0080     R  	mov _y3[2],a
 293  073B  0700     E  	mov a,rg
 293  073C  0080     R  	mov _y3[3],a
 293  073D  0003        	ret
 293  073E              _chaosMath endp
 293  073E              #line 293 "C:\Users\user1801\Desktop\HOLTEK\1070706\chaosTest0731\chaosTest0731.c"
 293  073E              #pragma debug scope 1 1
 293  073E              public _doMath
 293  073E              #pragma debug scope 10 1
 245  073E              #line 245 "C:\Users\user1801\Desktop\HOLTEK\1070706\chaosTest0731\chaosTest0731.c"
 245  0000              _doMath .section 'code'
 245  0000              _doMath proc
 246  0000              #line 246 "C:\Users\user1801\Desktop\HOLTEK\1070706\chaosTest0731\chaosTest0731.c"
 246  0000              	fcall _chaosMath
 246  0007  0003        	ret
 246  0008              _doMath endp
 246  0008              #line 246 "C:\Users\user1801\Desktop\HOLTEK\1070706\chaosTest0731\chaosTest0731.c"
 246  0008              #pragma debug scope 1 1
  56  0008              #line 56 "C:\Users\user1801\Desktop\HOLTEK\1070706\chaosTest0731\chaosTest0731.c"
  56  0008              public _u1Val
  56  0000              @HCCINIT0_u1Val .section 'data'
  56  0000  0004[       _u1Val	db 4 dup(0)
            00
            ]
  56  0004              #pragma debug struct_end
  56  0004              #pragma debug struct_end
  56  0004              #pragma debug union_end
  56  0004              #pragma debug union_end
  56  0004              #pragma debug variable 45 1 _u1Val "u1Val"
"File: chaosTest0731.c  Assembler  Version HGASM0202      Page 44

  56  0004              
  56  0000              @HCCINIT .section 'data'
  55  0000              #line 55 "C:\Users\user1801\Desktop\HOLTEK\1070706\chaosTest0731\chaosTest0731.c"
  55  0000              public _key
  55  0000              @HCCINIT0_key .section 'data'
  55  0000              _key	db 0
  55  0001              #pragma debug variable 8 1 _key "key"
  55  0001              
  55  0000              @HCCINIT .section 'data'
  30  0000              #line 30 "C:\Users\user1801\Desktop\HOLTEK\1070706\chaosTest0731\chaosTest0731.c"
  30  0000              public _switchCaseNum
  30  0000              @HCCINIT0_switchCaseNum .section 'data'
  30  0000  0002[       _switchCaseNum	db 2 dup(0)
            00
            ]
  30  0002              #pragma debug variable 11 1 _switchCaseNum "switchCaseNum"
  30  0002              
  30  0000              @HCCINIT .section 'data'
  29  0000              #line 29 "C:\Users\user1801\Desktop\HOLTEK\1070706\chaosTest0731\chaosTest0731.c"
  29  0000              public _b_RX
  29  0000              @HCCINIT0_b_RX .section 'data'
  29  0000              _b_RX	db 0
  29  0001              #pragma debug variable 8 1 _b_RX "b_RX"
  29  0001              
  29  0000              @HCCINIT .section 'data'
  28  0000              #line 28 "C:\Users\user1801\Desktop\HOLTEK\1070706\chaosTest0731\chaosTest0731.c"
  28  0000              public _RxData
  28  0000              @HCCINIT0_RxData .section 'data'
  28  0000              _RxData	db 0
  28  0001              #pragma debug variable 8 1 _RxData "RxData"
  28  0001              
  28  0000              @HCCINIT .section 'data'
  23  0000              #line 23 "C:\Users\user1801\Desktop\HOLTEK\1070706\chaosTest0731\chaosTest0731.c"
  23  0000              public _y3n
  23  0000              @HCCINIT0_y3n .section 'data'
  23  0000  0004[       _y3n	db 4 dup(0)
            00
            ]
  23  0004              #pragma debug variable 29 1 _y3n "y3n"
  23  0004              
  23  0000              @HCCINIT .section 'data'
  23  0000              #line 23 "C:\Users\user1801\Desktop\HOLTEK\1070706\chaosTest0731\chaosTest0731.c"
  23  0000              public _y2n
  23  0000              @HCCINIT0_y2n .section 'data'
  23  0000  0004[       _y2n	db 4 dup(0)
            00
            ]
  23  0004              #pragma debug variable 29 1 _y2n "y2n"
  23  0004              
  23  0000              @HCCINIT .section 'data'
  23  0000              #line 23 "C:\Users\user1801\Desktop\HOLTEK\1070706\chaosTest0731\chaosTest0731.c"
  23  0000              public _y1n
  23  0000              @HCCINIT0_y1n .section 'data'
  23  0000  0004[       _y1n	db 4 dup(0)
            00
            ]
  23  0004              #pragma debug variable 29 1 _y1n "y1n"
  23  0004              
  23  0000              @HCCINIT .section 'data'
  23  0000              #line 23 "C:\Users\user1801\Desktop\HOLTEK\1070706\chaosTest0731\chaosTest0731.c"
"File: chaosTest0731.c  Assembler  Version HGASM0202      Page 45

  23  0000              public _y3
  23  0000              @HCCINIT0_y3 .section 'data'
  23  0000  0004[       _y3	db 4 dup(0)
            00
            ]
  23  0004              #pragma debug variable 29 1 _y3 "y3"
  23  0004              
  23  0000              @HCCINIT .section 'data'
  23  0000              #line 23 "C:\Users\user1801\Desktop\HOLTEK\1070706\chaosTest0731\chaosTest0731.c"
  23  0000              public _y2
  23  0000              @HCCINIT0_y2 .section 'data'
  23  0000  0004[       _y2	db 4 dup(0)
            00
            ]
  23  0004              #pragma debug variable 29 1 _y2 "y2"
  23  0004              
  23  0000              @HCCINIT .section 'data'
  23  0000              #line 23 "C:\Users\user1801\Desktop\HOLTEK\1070706\chaosTest0731\chaosTest0731.c"
  23  0000              public _y1
  23  0000              @HCCINIT0_y1 .section 'data'
  23  0000  0004[       _y1	db 4 dup(0)
            00
            ]
  23  0004              #pragma debug variable 29 1 _y1 "y1"
  23  0004              
  23  0000              @HCCINIT .section 'data'
  23  0000              #line 23 "C:\Users\user1801\Desktop\HOLTEK\1070706\chaosTest0731\chaosTest0731.c"
  23  0000              public _ax3
  23  0000              @HCCINIT0_ax3 .section 'data'
  23  0000  0004[       _ax3	db 4 dup(0)
            00
            ]
  23  0004              #pragma debug variable 29 1 _ax3 "ax3"
  23  0004              
  23  0000              @HCCINIT .section 'data'
  23  0000              #line 23 "C:\Users\user1801\Desktop\HOLTEK\1070706\chaosTest0731\chaosTest0731.c"
  23  0000              public _ax2
  23  0000              @HCCINIT0_ax2 .section 'data'
  23  0000  0004[       _ax2	db 4 dup(0)
            00
            ]
  23  0004              #pragma debug variable 29 1 _ax2 "ax2"
  23  0004              
  23  0000              @HCCINIT .section 'data'
  23  0000              #line 23 "C:\Users\user1801\Desktop\HOLTEK\1070706\chaosTest0731\chaosTest0731.c"
  23  0000              public _ax1
  23  0000              @HCCINIT0_ax1 .section 'data'
  23  0000  0004[       _ax1	db 4 dup(0)
            00
            ]
  23  0004              #pragma debug variable 29 1 _ax1 "ax1"
  23  0004              
  23  0000              @HCCINIT .section 'data'
  23  0000              #line 23 "C:\Users\user1801\Desktop\HOLTEK\1070706\chaosTest0731\chaosTest0731.c"
  23  0000              public _dx3
  23  0000              @HCCINIT0_dx3 .section 'data'
  23  0000  0004[       _dx3	db 4 dup(0)
            00
            ]
  23  0004              #pragma debug variable 29 1 _dx3 "dx3"
"File: chaosTest0731.c  Assembler  Version HGASM0202      Page 46

  23  0004              
  23  0000              @HCCINIT .section 'data'
  23  0000              #line 23 "C:\Users\user1801\Desktop\HOLTEK\1070706\chaosTest0731\chaosTest0731.c"
  23  0000              public _dx2
  23  0000              @HCCINIT0_dx2 .section 'data'
  23  0000  0004[       _dx2	db 4 dup(0)
            00
            ]
  23  0004              #pragma debug variable 29 1 _dx2 "dx2"
  23  0004              
  23  0000              @HCCINIT .section 'data'
  23  0000              #line 23 "C:\Users\user1801\Desktop\HOLTEK\1070706\chaosTest0731\chaosTest0731.c"
  23  0000              public _dx1
  23  0000              @HCCINIT0_dx1 .section 'data'
  23  0000  0004[       _dx1	db 4 dup(0)
            00
            ]
  23  0004              #pragma debug variable 29 1 _dx1 "dx1"
  23  0004              
  23  0000              @HCCINIT .section 'data'
  23  0000              #line 23 "C:\Users\user1801\Desktop\HOLTEK\1070706\chaosTest0731\chaosTest0731.c"
  23  0000              public _A
  23  0000              @HCCINIT0_A .section 'data'
  23  0000  0004[       _A	db 4 dup(0)
            00
            ]
  23  0004              #pragma debug variable 29 1 _A "A"
  23  0004              
  23  0000              @HCCINIT .section 'data'
  23  0000              #line 23 "C:\Users\user1801\Desktop\HOLTEK\1070706\chaosTest0731\chaosTest0731.c"
  23  0000              public _c2
  23  0000              @HCCINIT0_c2 .section 'data'
  23  0000  0004[       _c2	db 4 dup(0)
            00
            ]
  23  0004              #pragma debug variable 29 1 _c2 "c2"
  23  0004              
  23  0000              @HCCINIT .section 'data'
  23  0000              #line 23 "C:\Users\user1801\Desktop\HOLTEK\1070706\chaosTest0731\chaosTest0731.c"
  23  0000              public _c1
  23  0000              @HCCINIT0_c1 .section 'data'
  23  0000  0004[       _c1	db 4 dup(0)
            00
            ]
  23  0004              #pragma debug variable 29 1 _c1 "c1"
  23  0004              
  23  0000              @HCCINIT .section 'data'
  23  0000              #line 23 "C:\Users\user1801\Desktop\HOLTEK\1070706\chaosTest0731\chaosTest0731.c"
  23  0000              public _u2
  23  0000              @HCCINIT0_u2 .section 'data'
  23  0000  0004[       _u2	db 4 dup(0)
            00
            ]
  23  0004              #pragma debug variable 29 1 _u2 "u2"
  23  0004              
  23  0000              @HCCINIT .section 'data'
  23  0000              #line 23 "C:\Users\user1801\Desktop\HOLTEK\1070706\chaosTest0731\chaosTest0731.c"
  23  0000              public _u1
  23  0000              @HCCINIT0_u1 .section 'data'
  23  0000  0004[       _u1	db 4 dup(0)
"File: chaosTest0731.c  Assembler  Version HGASM0202      Page 47

            00
            ]
  23  0004              #pragma debug variable 29 1 _u1 "u1"
  23  0004              
  23  0000              @HCCINIT .section 'data'
  23  0000              #line 23 "C:\Users\user1801\Desktop\HOLTEK\1070706\chaosTest0731\chaosTest0731.c"
  23  0000              public _j2
  23  0000              @HCCINIT0_j2 .section 'data'
  23  0000  0004[       _j2	db 4 dup(0)
            00
            ]
  23  0004              #pragma debug variable 29 1 _j2 "j2"
  23  0004              
  23  0000              @HCCINIT .section 'data'
  23  0000              #line 23 "C:\Users\user1801\Desktop\HOLTEK\1070706\chaosTest0731\chaosTest0731.c"
  23  0000              public _j1
  23  0000              @HCCINIT0_j1 .section 'data'
  23  0000  0004[       _j1	db 4 dup(0)
            00
            ]
  23  0004              #pragma debug variable 29 1 _j1 "j1"
  23  0004              
  23  0000              @HCCINIT .section 'data'
  23  0000              #line 23 "C:\Users\user1801\Desktop\HOLTEK\1070706\chaosTest0731\chaosTest0731.c"
  23  0000              public _h2
  23  0000              @HCCINIT0_h2 .section 'data'
  23  0000  0004[       _h2	db 4 dup(0)
            00
            ]
  23  0004              #pragma debug variable 29 1 _h2 "h2"
  23  0004              
  23  0000              @HCCINIT .section 'data'
  23  0000              #line 23 "C:\Users\user1801\Desktop\HOLTEK\1070706\chaosTest0731\chaosTest0731.c"
  23  0000              public _h1
  23  0000              @HCCINIT0_h1 .section 'data'
  23  0000  0004[       _h1	db 4 dup(0)
            00
            ]
  23  0004              #pragma debug variable 29 1 _h1 "h1"
  23  0004              
  23  0000              @HCCINIT .section 'data'
  23  0000              #line 23 "C:\Users\user1801\Desktop\HOLTEK\1070706\chaosTest0731\chaosTest0731.c"
  23  0000              public _g4
  23  0000              @HCCINIT0_g4 .section 'data'
  23  0000  0004[       _g4	db 4 dup(0)
            00
            ]
  23  0004              #pragma debug variable 29 1 _g4 "g4"
  23  0004              
  23  0000              @HCCINIT .section 'data'
  23  0000              #line 23 "C:\Users\user1801\Desktop\HOLTEK\1070706\chaosTest0731\chaosTest0731.c"
  23  0000              public _g3
  23  0000              @HCCINIT0_g3 .section 'data'
  23  0000  0004[       _g3	db 4 dup(0)
            00
            ]
  23  0004              #pragma debug variable 29 1 _g3 "g3"
  23  0004              
  23  0000              @HCCINIT .section 'data'
  23  0000              #line 23 "C:\Users\user1801\Desktop\HOLTEK\1070706\chaosTest0731\chaosTest0731.c"
"File: chaosTest0731.c  Assembler  Version HGASM0202      Page 48

  23  0000              public _g2
  23  0000              @HCCINIT0_g2 .section 'data'
  23  0000  0004[       _g2	db 4 dup(0)
            00
            ]
  23  0004              #pragma debug variable 29 1 _g2 "g2"
  23  0004              
  23  0000              @HCCINIT .section 'data'
  23  0000              #line 23 "C:\Users\user1801\Desktop\HOLTEK\1070706\chaosTest0731\chaosTest0731.c"
  23  0000              public _g1
  23  0000              @HCCINIT0_g1 .section 'data'
  23  0000  0004[       _g1	db 4 dup(0)
            00
            ]
  23  0004              #pragma debug variable 29 1 _g1 "g1"
  23  0004              
  23  0000              @HCCINIT .section 'data'
  23  0000              #pragma debug struct_end
  23  0000              #pragma debug struct_end
  23  0000              #pragma debug union_end
  23  0000              #pragma debug union_end
  23  0000              #pragma debug variable 47 1 ___pa "__pa" 1
  23  0000              #pragma debug struct_end
  23  0000              #pragma debug struct_end
  23  0000              #pragma debug union_end
  23  0000              #pragma debug union_end
  23  0000              #pragma debug variable 49 1 ___pac "__pac" 1
  23  0000              #pragma debug struct_end
  23  0000              #pragma debug struct_end
  23  0000              #pragma debug union_end
  23  0000              #pragma debug union_end
  23  0000              #pragma debug variable 51 1 ___pdpu "__pdpu" 1
  23  0000              #pragma debug struct_end
  23  0000              #pragma debug struct_end
  23  0000              #pragma debug union_end
  23  0000              #pragma debug union_end
  23  0000              #pragma debug variable 53 1 ___pd "__pd" 1
  23  0000              #pragma debug struct_end
  23  0000              #pragma debug struct_end
  23  0000              #pragma debug union_end
  23  0000              #pragma debug union_end
  23  0000              #pragma debug variable 55 1 ___pdc "__pdc" 1
  23  0000              #pragma debug struct_end
  23  0000              #pragma debug struct_end
  23  0000              #pragma debug union_end
  23  0000              #pragma debug union_end
  23  0000              #pragma debug variable 57 1 ___pgpu "__pgpu" 1
  23  0000              #pragma debug struct_end
  23  0000              #pragma debug struct_end
  23  0000              #pragma debug union_end
  23  0000              #pragma debug union_end
  23  0000              #pragma debug variable 59 1 ___pg "__pg" 1
  23  0000              #pragma debug struct_end
  23  0000              #pragma debug struct_end
  23  0000              #pragma debug union_end
  23  0000              #pragma debug union_end
  23  0000              #pragma debug variable 61 1 ___pgc "__pgc" 1
  23  0000              #pragma debug struct_end
  23  0000              #pragma debug struct_end
  23  0000              #pragma debug union_end
"File: chaosTest0731.c  Assembler  Version HGASM0202      Page 49

  23  0000              #pragma debug union_end
  23  0000              #pragma debug variable 63 1 ___intc0 "__intc0" 1
  23  0000              #pragma debug struct_end
  23  0000              #pragma debug struct_end
  23  0000              #pragma debug union_end
  23  0000              #pragma debug union_end
  23  0000              #pragma debug variable 65 1 ___mfi0 "__mfi0" 1
  23  0000              #pragma debug struct_end
  23  0000              #pragma debug struct_end
  23  0000              #pragma debug union_end
  23  0000              #pragma debug union_end
  23  0000              #pragma debug variable 67 1 ___integ "__integ" 1
  23  0000              #pragma debug struct_end
  23  0000              #pragma debug struct_end
  23  0000              #pragma debug union_end
  23  0000              #pragma debug union_end
  23  0000              #pragma debug variable 69 1 ___wdtc "__wdtc" 1
  23  0000              #pragma debug struct_end
  23  0000              #pragma debug struct_end
  23  0000              #pragma debug union_end
  23  0000              #pragma debug union_end
  23  0000              #pragma debug variable 71 1 ___tm1c0 "__tm1c0" 1
  23  0000              #pragma debug struct_end
  23  0000              #pragma debug struct_end
  23  0000              #pragma debug union_end
  23  0000              #pragma debug union_end
  23  0000              #pragma debug variable 73 1 ___tm1c1 "__tm1c1" 1
  23  0000              #pragma debug struct_end
  23  0000              #pragma debug struct_end
  23  0000              #pragma debug union_end
  23  0000              #pragma debug union_end
  23  0000              #pragma debug variable 75 1 ___tm1c2 "__tm1c2" 1
  23  0000              #pragma debug variable 8 1 ___tm1al "__tm1al" 1
  23  0000              #pragma debug variable 8 1 ___tm1ah "__tm1ah" 1
  23  0000              #pragma debug variable 8 1 ___tm1bl "__tm1bl" 1
  23  0000              #pragma debug variable 8 1 ___tm1bh "__tm1bh" 1
  23  0000              #pragma debug struct_end
  23  0000              #pragma debug struct_end
  23  0000              #pragma debug union_end
  23  0000              #pragma debug union_end
  23  0000              #pragma debug variable 77 1 ___tm3c0 "__tm3c0" 1
  23  0000              #pragma debug struct_end
  23  0000              #pragma debug struct_end
  23  0000              #pragma debug union_end
  23  0000              #pragma debug union_end
  23  0000              #pragma debug variable 79 1 ___tm3c1 "__tm3c1" 1
  23  0000              #pragma debug variable 8 1 ___tm3al "__tm3al" 1
  23  0000              #pragma debug variable 8 1 ___tm3ah "__tm3ah" 1
  23  0000              #pragma debug struct_end
  23  0000              #pragma debug struct_end
  23  0000              #pragma debug union_end
  23  0000              #pragma debug union_end
  23  0000              #pragma debug variable 81 1 ___tm0c0 "__tm0c0" 1
  23  0000              #pragma debug struct_end
  23  0000              #pragma debug struct_end
  23  0000              #pragma debug union_end
  23  0000              #pragma debug union_end
  23  0000              #pragma debug variable 83 1 ___tm0c1 "__tm0c1" 1
  23  0000              #pragma debug variable 8 1 ___tm0al "__tm0al" 1
  23  0000              #pragma debug variable 8 1 ___tm0ah "__tm0ah" 1
"File: chaosTest0731.c  Assembler  Version HGASM0202      Page 50

  23  0000              #pragma debug struct_end
  23  0000              #pragma debug struct_end
  23  0000              #pragma debug union_end
  23  0000              #pragma debug union_end
  23  0000              #pragma debug variable 85 1 ___pcs0 "__pcs0" 1
  23  0000              #pragma debug struct_end
  23  0000              #pragma debug struct_end
  23  0000              #pragma debug union_end
  23  0000              #pragma debug union_end
  23  0000              #pragma debug variable 87 1 ___pcs3 "__pcs3" 1
  23  0000              #pragma debug struct_end
  23  0000              #pragma debug struct_end
  23  0000              #pragma debug union_end
  23  0000              #pragma debug union_end
  23  0000              #pragma debug variable 89 1 ___pds0 "__pds0" 1
  23  0000              extern r1:byte
  23  0000              extern r2:byte
  23  0000              extern r3:byte
  58  0000              #line 58 "C:\Users\user1801\Desktop\HOLTEK\1070706\chaosTest0731\chaosTest0731.c"
  58  0000              @code .section at 0 'code'
  58  0000  1F0B        	clr bp
  58  0001  2800     R  	jmp _main_startup1
  58  0002              
  58  0002              extern _builtin_holtek_mant1:byte
  58  0002              extern _builtin_holtek_mant2:byte
  58  0002              extern _builtin_holtek_mant12p:byte
  58  0002              extern _builtin_holtek_dtmul:near
  58  0002              extern _builtin_holtek_dtdiv:near
  58  0002              extern _builtin_holtek_dtadd:near
  58  0002              extern _builtin_holtek_dtsub:near
  58  0002              
  58  0002              ; 
  58  0002              ; Generated by holtek-gcc v3.18, Mon Sep 10 19:23:49 2018
  58  0002              ; Rebuild 521
  58  0002              ; end of file


        0 Errors, 0